ccopy_reg
_reconstructor
p1
(ctensorflow.contrib.learn.python.learn.preprocessing.text
VocabularyProcessor
p2
c__builtin__
object
p3
NtRp4
(dp5
S'vocabulary_'
p6
g1
(ctensorflow.contrib.learn.python.learn.preprocessing.categorical_vocabulary
CategoricalVocabulary
p7
g3
NtRp8
(dp9
S'_freeze'
p10
I01
sS'_unknown_token'
p11
S'<UNK>'
p12
sS'_support_reverse'
p13
I01
sS'_freq'
p14
ccollections
defaultdict
p15
(c__builtin__
int
p16
tRp17
S'1718'
p18
I7
sS'2031'
p19
I37
sS'1869'
p20
I51
sS'1868'
p21
I2
sS'854'
p22
I8
sS'344'
p23
I766
sS'345'
p24
I469
sS'346'
p25
I120
sS'347'
p26
I46
sS'340'
p27
I84
sS'341'
p28
I31
sS'342'
p29
I518
sS'343'
p30
I42
sS'348'
p31
I455
sS'349'
p32
I1059
sS'2318'
p33
I320
sS'2316'
p34
I236
sS'2317'
p35
I8
sS'2314'
p36
I104
sS'2315'
p37
I147
sS'2312'
p38
I331
sS'2313'
p39
I457
sS'2310'
p40
I134
sS'2311'
p41
I470
sS'298'
p42
I23
sS'299'
p43
I143
sS'296'
p44
I2171
sS'297'
p45
I28
sS'294'
p46
I42
sS'295'
p47
I29
sS'292'
p48
I733
sS'293'
p49
I923
sS'290'
p50
I168
sS'291'
p51
I48
sS'3773'
p52
I171
sS'3772'
p53
I3
sS'3771'
p54
I151
sS'3770'
p55
I338
sS'3777'
p56
I11
sS'3776'
p57
I24
sS'3775'
p58
I20
sS'3774'
p59
I64
sS'2147'
p60
I231
sS'3779'
p61
I1
sS'3778'
p62
I6
sS'270'
p63
I79
sS'271'
p64
I63
sS'272'
p65
I383
sS'273'
p66
I244
sS'274'
p67
I24
sS'275'
p68
I80
sS'276'
p69
I228
sS'277'
p70
I170
sS'278'
p71
I40
sS'279'
p72
I46
sS'2814'
p73
I8
sS'3211'
p74
I66
sS'1780'
p75
I8
sS'2268'
p76
I1061
sS'2269'
p77
I217
sS'1132'
p78
I220
sS'2262'
p79
I326
sS'2263'
p80
I175
sS'2260'
p81
I49
sS'2261'
p82
I161
sS'2266'
p83
I195
sS'2267'
p84
I74
sS'2264'
p85
I83
sS'2265'
p86
I83
sS'2442'
p87
I160
sS'2443'
p88
I126
sS'2440'
p89
I47
sS'1130'
p90
I231
sS'2446'
p91
I63
sS'2447'
p92
I266
sS'2444'
p93
I5
sS'1004'
p94
I101
sS'2448'
p95
I189
sS'2449'
p96
I32
sS'108'
p97
I7
sS'2515'
p98
I52
sS'102'
p99
I60
sS'103'
p100
I33
sS'100'
p101
I128
sS'101'
p102
I253
sS'106'
p103
I12
sS'107'
p104
I256
sS'104'
p105
I682
sS'105'
p106
I387
sS'2046'
p107
I536
sS'2047'
p108
I22
sS'2044'
p109
I52
sS'2045'
p110
I55
sS'2042'
p111
I193
sS'2043'
p112
I158
sS'2040'
p113
I128
sS'2041'
p114
I145
sS'2048'
p115
I131
sS'2049'
p116
I37
sS'1373'
p117
I613
sS'2839'
p118
I10
sS'3238'
p119
I267
sS'2737'
p120
I23
sS'2038'
p121
I198
sS'2835'
p122
I56
sS'3519'
p123
I199
sS'3518'
p124
I54
sS'3513'
p125
I420
sS'3512'
p126
I454
sS'3511'
p127
I66
sS'3510'
p128
I821
sS'3517'
p129
I2
sS'3516'
p130
I227
sS'3515'
p131
I192
sS'3514'
p132
I62
sS'2688'
p133
I691
sS'2689'
p134
I41
sS'2685'
p135
I4
sS'2686'
p136
I583
sS'2687'
p137
I442
sS'2681'
p138
I43
sS'2682'
p139
I88
sS'2683'
p140
I1434
sS'1436'
p141
I9
sS'1437'
p142
I21
sS'1434'
p143
I2
sS'99'
p144
I50
sS'98'
p145
I6
sS'3395'
p146
I55
sS'93'
p147
I89
sS'92'
p148
I88
sS'95'
p149
I638
sS'94'
p150
I182
sS'97'
p151
I44
sS'96'
p152
I13
sS'1991'
p153
I239
sS'3206'
p154
I133
sS'1621'
p155
I85
sS'3204'
p156
I204
sS'3203'
p157
I497
sS'1994'
p158
I795
sS'1625'
p159
I882
sS'1624'
p160
I50
sS'1999'
p161
I127
sS'1998'
p162
I113
sS'1629'
p163
I109
sS'1431'
p164
I232
sS'3209'
p165
I1
sS'3208'
p166
I264
sS'3013'
p167
I65
sS'3010'
p168
I35
sS'2860'
p169
I128
sS'2861'
p170
I354
sS'2862'
p171
I89
sS'2863'
p172
I518
sS'2864'
p173
I28
sS'558'
p174
I135
sS'2866'
p175
I199
sS'2867'
p176
I306
sS'555'
p177
I658
sS'2869'
p178
I3
sS'557'
p179
I2
sS'556'
p180
I132
sS'551'
p181
I996
sS'550'
p182
I178
sS'553'
p183
I553
sS'552'
p184
I529
sS'3538'
p185
I176
sS'3015'
p186
I144
sS'1199'
p187
I913
sS'1198'
p188
I2514
sS'3349'
p189
I25
sS'1191'
p190
I209
sS'1190'
p191
I132
sS'1193'
p192
I1725
sS'1192'
p193
I105
sS'3346'
p194
I5
sS'3347'
p195
I212
sS'1197'
p196
I2318
sS'1196'
p197
I2990
sS'1759'
p198
I51
sS'1758'
p199
I100
sS'1756'
p200
I51
sS'1755'
p201
I30
sS'1754'
p202
I388
sS'1753'
p203
I198
sS'1752'
p204
I206
sS'1750'
p205
I63
sS'1177'
p206
I147
sS'1176'
p207
I129
sS'1175'
p208
I368
sS'1174'
p209
I5
sS'1173'
p210
I198
sS'1172'
p211
I615
sS'1171'
p212
I415
sS'1170'
p213
I17
sS'1179'
p214
I885
sS'1178'
p215
I230
sS'511'
p216
I152
sS'1006'
p217
I78
sS'513'
p218
I67
sS'644'
p219
I1
sS'1285'
p220
I803
sS'1284'
p221
I541
sS'1287'
p222
I704
sS'1286'
p223
I285
sS'1281'
p224
I216
sS'1280'
p225
I277
sS'1283'
p226
I403
sS'1282'
p227
I943
sS'515'
p228
I450
sS'1289'
p229
I182
sS'1288'
p230
I1118
sS'1002'
p231
I8
sS'876'
p232
I21
sS'1579'
p233
I1
sS'688'
p234
I213
sS'877'
p235
I24
sS'1573'
p236
I1421
sS'1572'
p237
I26
sS'1571'
p238
I45
sS'1000'
p239
I20
sS'681'
p240
I15
sS'680'
p241
I64
sS'1575'
p242
I14
sS'1574'
p243
I15
sS'662'
p244
I128
sS'458'
p245
I87
sS'3433'
p246
I48
sS'1349'
p247
I14
sS'872'
p248
I1
sS'621'
p249
I42
sS'2190'
p250
I52
sS'3435'
p251
I551
sS'870'
p252
I49
sS'627'
p253
I121
sS'626'
p254
I19
sS'2741'
p255
I61
sS'2740'
p256
I17
sS'1793'
p257
I13
sS'624'
p258
I1
sS'2743'
p259
I24
sS'1371'
p260
I792
sS'1370'
p261
I1135
sS'405'
p262
I203
sS'1372'
p263
I1001
sS'1375'
p264
I927
sS'1374'
p265
I1448
sS'1377'
p266
I1031
sS'1376'
p267
I1126
sS'1379'
p268
I369
sS'1378'
p269
I562
sS'452'
p270
I38
sS'409'
p271
I49
sS'408'
p272
I72
sS'3834'
p273
I176
sS'3835'
p274
I178
sS'3836'
p275
I375
sS'453'
p276
I67
sS'3830'
p277
I25
sS'3831'
p278
I186
sS'3832'
p279
I21
sS'3833'
p280
I56
sS'1344'
p281
I361
sS'2192'
p282
I7
sS'3838'
p283
I42
sS'3839'
p284
I47
sS'455'
p285
I285
sS'2749'
p286
I87
sS'456'
p287
I93
sS'2748'
p288
I137
sS'457'
p289
I1995
sS'1018'
p290
I123
sS'379'
p291
I436
sS'378'
p292
I140
sS'371'
p293
I212
sS'370'
p294
I412
sS'373'
p295
I258
sS'372'
p296
I428
sS'375'
p297
I17
sS'374'
p298
I183
sS'377'
p299
I1650
sS'376'
p300
I350
sS'3093'
p301
I208
sS'892'
p302
I152
sS'393'
p303
I105
sS'392'
p304
I25
sS'391'
p305
I40
sS'390'
p306
I59
sS'397'
p307
I12
sS'396'
p308
I1
sS'394'
p309
I18
sS'398'
p310
I1
sS'895'
p311
I2
sS'2309'
p312
I2
sS'2308'
p313
I1
sS'2301'
p314
I371
sS'2300'
p315
I658
sS'2303'
p316
I325
sS'2302'
p317
I1086
sS'2305'
p318
I25
sS'2304'
p319
I7
sS'2307'
p320
I38
sS'2306'
p321
I90
sS'3748'
p322
I2
sS'3749'
p323
I22
sS'3746'
p324
I69
sS'3747'
p325
I148
sS'3744'
p326
I421
sS'3745'
p327
I535
sS'3742'
p328
I234
sS'3743'
p329
I77
sS'3740'
p330
I584
sS'3741'
p331
I241
sS'245'
p332
I11
sS'244'
p333
I10
sS'247'
p334
I477
sS'246'
p335
I716
sS'241'
p336
I29
sS'240'
p337
I45
sS'243'
p338
I10
sS'242'
p339
I80
sS'249'
p340
I261
sS'248'
p341
I138
sS'2275'
p342
I71
sS'2277'
p343
I1
sS'2276'
p344
I70
sS'2271'
p345
I76
sS'2273'
p346
I627
sS'2272'
p347
I112
sS'2279'
p348
I226
sS'2278'
p349
I806
sS'972'
p350
I6
sS'2198'
p351
I2
sS'264'
p352
I5
sS'2459'
p353
I247
sS'3201'
p354
I359
sS'2455'
p355
I1071
sS'2454'
p356
I480
sS'2457'
p357
I259
sS'2456'
p358
I284
sS'2451'
p359
I113
sS'2450'
p360
I434
sS'2453'
p361
I176
sS'2452'
p362
I19
sS'179'
p363
I48
sS'178'
p364
I19
sS'177'
p365
I139
sS'176'
p366
I205
sS'175'
p367
I220
sS'174'
p368
I81
sS'173'
p369
I564
sS'172'
p370
I458
sS'171'
p371
I93
sS'170'
p372
I321
sS'3698'
p373
I730
sS'3699'
p374
I865
sS'2053'
p375
I381
sS'2052'
p376
I183
sS'2055'
p377
I42
sS'2054'
p378
I1045
sS'2057'
p379
I91
sS'2056'
p380
I18
sS'2059'
p381
I268
sS'2058'
p382
I799
sS'3692'
p383
I58
sS'3693'
p384
I182
sS'3694'
p385
I62
sS'3695'
p386
I53
sS'3696'
p387
I65
sS'3697'
p388
I643
sS'2156'
p389
I9
sS'652'
p390
I9
sS'3088'
p391
I356
sS'1504'
p392
I16
sS'651'
p393
I1
sS'3526'
p394
I811
sS'3527'
p395
I1297
sS'3524'
p396
I534
sS'3525'
p397
I360
sS'3522'
p398
I3
sS'3523'
p399
I8
sS'3520'
p400
I32
sS'3521'
p401
I188
sS'1508'
p402
I36
sS'3528'
p403
I321
sS'3529'
p404
I155
sS'1364'
p405
I2
sS'3086'
p406
I81
sS'338'
p407
I221
sS'1977'
p408
I169
sS'658'
p409
I1
sS'2699'
p410
I1367
sS'1600'
p411
I84
sS'2697'
p412
I48
sS'2696'
p413
I81
sS'2695'
p414
I11
sS'2694'
p415
I791
sS'2693'
p416
I224
sS'2692'
p417
I1072
sS'2691'
p418
I20
sS'1365'
p419
I58
sS'1602'
p420
I43
sS'1605'
p421
I88
sS'1604'
p422
I65
sS'3223'
p423
I29
sS'1970'
p424
I268
sS'1362'
p425
I100
sS'3232'
p426
I5
sS'3233'
p427
I2
sS'3230'
p428
I78
sS'1968'
p429
I1539
sS'1969'
p430
I274
sS'1619'
p431
I362
sS'1964'
p432
I302
sS'1617'
p433
I2288
sS'1966'
p434
I198
sS'1967'
p435
I554
sS'1960'
p436
I636
sS'1961'
p437
I1330
sS'1962'
p438
I652
sS'1963'
p439
I252
sS'1749'
p440
I10
sS'2873'
p441
I22
sS'2872'
p442
I742
sS'2871'
p443
I729
sS'2870'
p444
I193
sS'2877'
p445
I211
sS'2876'
p446
I43
sS'2875'
p447
I291
sS'2874'
p448
I67
sS'2879'
p449
I164
sS'2878'
p450
I34
sS'3355'
p451
I298
sS'3354'
p452
I793
sS'3357'
p453
I103
sS'3351'
p454
I15
sS'3350'
p455
I143
sS'3353'
p456
I2
sS'1117'
p457
I12
sS'3359'
p458
I520
sS'3358'
p459
I446
sS'3781'
p460
I29
sS'1769'
p461
I319
sS'1116'
p462
I17
sS'1361'
p463
I159
sS'1762'
p464
I227
sS'1760'
p465
I190
sS'1767'
p466
I26
sS'1764'
p467
I1
sS'1142'
p468
I2
sS'2965'
p469
I72
sS'1147'
p470
I277
sS'1144'
p471
I16
sS'1145'
p472
I2
sS'1148'
p473
I882
sS'1149'
p474
I4
sS'2966'
p475
I429
sS'690'
p476
I2
sS'1546'
p477
I49
sS'1547'
p478
I37
sS'1544'
p479
I1255
sS'1545'
p480
I73
sS'1542'
p481
I238
sS'697'
p482
I85
sS'694'
p483
I141
sS'1541'
p484
I240
sS'698'
p485
I5
sS'1548'
p486
I2
sS'1549'
p487
I19
sS'542'
p488
I206
sS'543'
p489
I682
sS'540'
p490
I169
sS'541'
p491
I1800
sS'546'
p492
I350
sS'547'
p493
I124
sS'544'
p494
I129
sS'545'
p495
I1
sS'3784'
p496
I165
sS'548'
p497
I137
sS'549'
p498
I157
sS'1864'
p499
I11
sS'760'
p500
I33
sS'761'
p501
I123
sS'2969'
p502
I91
sS'1785'
p503
I180
sS'1627'
p504
I250
sS'2388'
p505
I15
sS'1787'
p506
I2
sS'2158'
p507
I20
sS'414'
p508
I90
sS'415'
p509
I179
sS'416'
p510
I89
sS'417'
p511
I208
sS'1388'
p512
I370
sS'1389'
p513
I210
sS'412'
p514
I295
sS'413'
p515
I245
sS'1384'
p516
I6
sS'1385'
p517
I461
sS'1386'
p518
I1
sS'1387'
p519
I1697
sS'1380'
p520
I817
sS'1381'
p521
I303
sS'1382'
p522
I127
sS'1383'
p523
I11
sS'3827'
p524
I478
sS'3826'
p525
I405
sS'3825'
p526
I201
sS'3824'
p527
I117
sS'3823'
p528
I66
sS'3822'
p529
I70
sS'3821'
p530
I248
sS'3820'
p531
I37
sS'3828'
p532
I2
sS'2441'
p533
I26
sS'2438'
p534
I1
sS'3042'
p535
I65
sS'2445'
p536
I74
sS'3588'
p537
I48
sS'1447'
p538
I49
sS'368'
p539
I802
sS'369'
p540
I58
sS'366'
p541
I251
sS'367'
p542
I1179
sS'364'
p543
I1121
sS'365'
p544
I71
sS'362'
p545
I239
sS'363'
p546
I62
sS'360'
p547
I127
sS'361'
p548
I268
sS'2760'
p549
I7
sS'3202'
p550
I1
sS'2098'
p551
I76
sS'380'
p552
I1400
sS'381'
p553
I211
sS'382'
p554
I272
sS'383'
p555
I270
sS'384'
p556
I40
sS'385'
p557
I10
sS'386'
p558
I30
sS'387'
p559
I102
sS'388'
p560
I97
sS'389'
p561
I20
sS'3215'
p562
I11
sS'1369'
p563
I5
sS'3216'
p564
I3
sS'3759'
p565
I35
sS'3758'
p566
I120
sS'3751'
p567
I1329
sS'3753'
p568
I1240
sS'3752'
p569
I560
sS'3755'
p570
I1013
sS'3754'
p571
I206
sS'3757'
p572
I17
sS'3756'
p573
I24
sS'182'
p574
I49
sS'2191'
p575
I10
sS'258'
p576
I144
sS'2193'
p577
I802
sS'2194'
p578
I1127
sS'2195'
p579
I135
sS'2196'
p580
I27
sS'2197'
p581
I11
sS'252'
p582
I367
sS'253'
p583
I738
sS'250'
p584
I30
sS'251'
p585
I18
sS'256'
p586
I218
sS'257'
p587
I114
sS'254'
p588
I38
sS'3901'
p589
I106
sS'2200'
p590
I8
sS'2201'
p591
I20
sS'2202'
p592
I213
sS'2203'
p593
I233
sS'2204'
p594
I89
sS'2205'
p595
I33
sS'2206'
p596
I167
sS'2207'
p597
I8
sS'2208'
p598
I199
sS'2209'
p599
I10
sS'2428'
p600
I513
sS'2429'
p601
I180
sS'2400'
p602
I43
sS'2420'
p603
I493
sS'2421'
p604
I477
sS'2422'
p605
I286
sS'2423'
p606
I515
sS'2424'
p607
I838
sS'2425'
p608
I58
sS'2426'
p609
I27
sS'2427'
p610
I803
sS'2432'
p611
I146
sS'1848'
p612
I177
sS'168'
p613
I362
sS'169'
p614
I113
sS'164'
p615
I379
sS'165'
p616
I825
sS'166'
p617
I61
sS'167'
p618
I5
sS'160'
p619
I565
sS'161'
p620
I760
sS'162'
p621
I491
sS'163'
p622
I540
sS'3689'
p623
I141
sS'3688'
p624
I339
sS'3683'
p625
I628
sS'3682'
p626
I210
sS'3681'
p627
I325
sS'3680'
p628
I47
sS'3687'
p629
I2
sS'3686'
p630
I413
sS'3685'
p631
I545
sS'3684'
p632
I358
sS'3212'
p633
I2
sS'2518'
p634
I294
sS'2519'
p635
I96
sS'1842'
p636
I2
sS'2514'
p637
I116
sS'2066'
p638
I106
sS'2516'
p639
I45
sS'2517'
p640
I273
sS'2510'
p641
I3
sS'2511'
p642
I82
sS'2512'
p643
I19
sS'2513'
p644
I305
sS'2734'
p645
I466
sS'2735'
p646
I459
sS'2736'
p647
I225
sS'909'
p648
I417
sS'2730'
p649
I169
sS'2731'
p650
I187
sS'2732'
p651
I148
sS'2733'
p652
I50
sS'2738'
p653
I79
sS'2739'
p654
I450
sS'2848'
p655
I41
sS'3531'
p656
I27
sS'3530'
p657
I1
sS'3533'
p658
I7
sS'3532'
p659
I21
sS'3535'
p660
I630
sS'3534'
p661
I505
sS'3537'
p662
I34
sS'3536'
p663
I489
sS'3539'
p664
I39
sS'1090'
p665
I1143
sS'679'
p666
I2
sS'1814'
p667
I25
sS'1815'
p668
I1
sS'1816'
p669
I101
sS'1817'
p670
I12
sS'1810'
p671
I353
sS'1811'
p672
I13
sS'1812'
p673
I44
sS'1107'
p674
I3
sS'1098'
p675
I5
sS'1099'
p676
I194
sS'1444'
p677
I8
sS'2401'
p678
I312
sS'1609'
p679
I55
sS'1608'
p680
I1076
sS'3229'
p681
I1
sS'3228'
p682
I2
sS'1979'
p683
I112
sS'1978'
p684
I114
sS'1601'
p685
I75
sS'1976'
p686
I199
sS'1603'
p687
I348
sS'1974'
p688
I317
sS'1973'
p689
I215
sS'1972'
p690
I200
sS'1971'
p691
I242
sS'1606'
p692
I109
sS'1555'
p693
I2
sS'809'
p694
I105
sS'808'
p695
I43
sS'803'
p696
I57
sS'802'
p697
I427
sS'801'
p698
I121
sS'800'
p699
I630
sS'807'
p700
I14
sS'806'
p701
I60
sS'805'
p702
I344
sS'804'
p703
I233
sS'1085'
p704
I131
sS'2849'
p705
I30
sS'2846'
p706
I166
sS'2847'
p707
I33
sS'2844'
p708
I83
sS'2845'
p709
I1
sS'2842'
p710
I42
sS'2843'
p711
I23
sS'2840'
p712
I419
sS'2841'
p713
I487
sS'3320'
p714
I45
sS'3321'
p715
I1
sS'3322'
p716
I4
sS'2614'
p717
I44
sS'3324'
p718
I190
sS'3325'
p719
I160
sS'3326'
p720
I180
sS'3327'
p721
I134
sS'3328'
p722
I314
sS'3329'
p723
I27
sS'1777'
p724
I909
sS'1771'
p725
I47
sS'1770'
p726
I19
sS'1773'
p727
I2
sS'1772'
p728
I230
sS'1779'
p729
I541
sS'2998'
p730
I13
sS'2999'
p731
I4
sS'1154'
p732
I15
sS'301'
p733
I43
sS'1151'
p734
I31
sS'1150'
p735
I158
sS'1153'
p736
I14
sS'1152'
p737
I29
sS'59'
p738
I8
sS'2618'
p739
I46
sS'58'
p740
I501
sS'1551'
p741
I36
sS'1550'
p742
I71
sS'1553'
p743
I4
sS'1552'
p744
I954
sS'3038'
p745
I74
sS'3039'
p746
I839
sS'1556'
p747
I367
sS'3034'
p748
I343
sS'2991'
p749
I422
sS'3036'
p750
I174
sS'3037'
p751
I591
sS'3030'
p752
I215
sS'50'
p753
I1783
sS'3032'
p754
I224
sS'2997'
p755
I2241
sS'537'
p756
I207
sS'2990'
p757
I385
sS'2804'
p758
I1352
sS'534'
p759
I286
sS'533'
p760
I203
sS'532'
p761
I389
sS'531'
p762
I338
sS'3035'
p763
I421
sS'1940'
p764
I91
sS'57'
p765
I99
sS'539'
p766
I986
sS'538'
p767
I315
sS'2993'
p768
I404
sS'200'
p769
I12
sS'2994'
p770
I10
sS'2995'
p771
I341
sS'3294'
p772
I2
sS'2996'
p773
I133
sS'3295'
p774
I2
sS'52'
p775
I431
sS'1904'
p776
I113
sS'1975'
p777
I171
sS'3297'
p778
I1
sS'536'
p779
I55
sS'3290'
p780
I1
sS'535'
p781
I301
sS'3291'
p782
I1
sS'429'
p783
I187
sS'428'
p784
I263
sS'3292'
p785
I6
sS'1399'
p786
I104
sS'1398'
p787
I63
sS'421'
p788
I94
sS'1396'
p789
I1091
sS'1395'
p790
I295
sS'1394'
p791
I1434
sS'425'
p792
I105
sS'1392'
p793
I219
sS'1391'
p794
I1074
sS'1390'
p795
I121
sS'3812'
p796
I285
sS'3813'
p797
I83
sS'3810'
p798
I83
sS'3811'
p799
I360
sS'3816'
p800
I38
sS'3817'
p801
I16
sS'3814'
p802
I219
sS'3818'
p803
I7
sS'3819'
p804
I245
sS'850'
p805
I30
sS'3626'
p806
I49
sS'851'
p807
I127
sS'3454'
p808
I43
sS'1841'
p809
I95
sS'3475'
p810
I134
sS'2183'
p811
I179
sS'2182'
p812
I98
sS'2181'
p813
I118
sS'2180'
p814
I58
sS'2187'
p815
I26
sS'2186'
p816
I482
sS'229'
p817
I108
sS'2184'
p818
I147
sS'227'
p819
I129
sS'226'
p820
I1
sS'2189'
p821
I21
sS'2188'
p822
I259
sS'223'
p823
I1412
sS'222'
p824
I329
sS'220'
p825
I28
sS'2213'
p826
I1
sS'2212'
p827
I128
sS'3075'
p828
I69
sS'2210'
p829
I54
sS'2217'
p830
I1
sS'2215'
p831
I12
sS'2214'
p832
I1
sS'2219'
p833
I10
sS'2218'
p834
I1
sS'763'
p835
I1
sS'864'
p836
I12
sS'151'
p837
I554
sS'150'
p838
I1251
sS'153'
p839
I777
sS'2232'
p840
I233
sS'155'
p841
I87
sS'154'
p842
I168
sS'157'
p843
I187
sS'156'
p844
I66
sS'2433'
p845
I612
sS'158'
p846
I259
sS'2431'
p847
I474
sS'2430'
p848
I144
sS'2437'
p849
I85
sS'2436'
p850
I122
sS'2435'
p851
I99
sS'2434'
p852
I60
sS'1161'
p853
I94
sS'2293'
p854
I25
sS'2509'
p855
I18
sS'2507'
p856
I54
sS'2506'
p857
I163
sS'2505'
p858
I272
sS'2504'
p859
I181
sS'2063'
p860
I8
sS'2502'
p861
I872
sS'2501'
p862
I588
sS'2500'
p863
I119
sS'124'
p864
I14
sS'2726'
p865
I130
sS'2725'
p866
I95
sS'2724'
p867
I650
sS'2723'
p868
I853
sS'2722'
p869
I598
sS'2721'
p870
I85
sS'2720'
p871
I373
sS'2729'
p872
I201
sS'2728'
p873
I426
sS'1807'
p874
I17
sS'1806'
p875
I168
sS'1805'
p876
I626
sS'1804'
p877
I119
sS'3786'
p878
I184
sS'3787'
p879
I63
sS'1801'
p880
I391
sS'3785'
p881
I613
sS'3788'
p882
I246
sS'3789'
p883
I156
sS'1809'
p884
I36
sS'90'
p885
I6
sS'632'
p886
I13
sS'127'
p887
I1
sS'3710'
p888
I185
sS'3258'
p889
I339
sS'3259'
p890
I403
sS'1948'
p891
I198
sS'1949'
p892
I219
sS'1525'
p893
I44
sS'3250'
p894
I366
sS'3251'
p895
I276
sS'3252'
p896
I555
sS'3253'
p897
I1120
sS'3254'
p898
I433
sS'3255'
p899
I1099
sS'3256'
p900
I1052
sS'3257'
p901
I626
sS'818'
p902
I189
sS'1255'
p903
I54
sS'810'
p904
I120
sS'811'
p905
I9
sS'813'
p906
I47
sS'814'
p907
I1
sS'815'
p908
I6
sS'2859'
p909
I239
sS'2858'
p910
I3428
sS'3495'
p911
I12
sS'1522'
p912
I7
sS'1990'
p913
I16
sS'2851'
p914
I133
sS'2850'
p915
I7
sS'2853'
p916
I28
sS'2852'
p917
I164
sS'2855'
p918
I10
sS'1993'
p919
I97
sS'2857'
p920
I399
sS'2856'
p921
I90
sS'1490'
p922
I26
sS'1397'
p923
I63
sS'3331'
p924
I35
sS'1620'
p925
I395
sS'1494'
p926
I19
sS'1495'
p927
I44
sS'1496'
p928
I25
sS'3334'
p929
I461
sS'1498'
p930
I131
sS'1499'
p931
I399
sS'3339'
p932
I43
sS'3338'
p933
I27
sS'423'
p934
I221
sS'1626'
p935
I81
sS'1701'
p936
I284
sS'1702'
p937
I302
sS'1703'
p938
I62
sS'1704'
p939
I1548
sS'1997'
p940
I885
sS'1707'
p941
I154
sS'1393'
p942
I1353
sS'3200'
p943
I172
sS'424'
p944
I75
sS'427'
p945
I166
sS'2091'
p946
I186
sS'426'
p947
I269
sS'3659'
p948
I38
sS'1128'
p949
I170
sS'1129'
p950
I884
sS'2834'
p951
I18
sS'1120'
p952
I456
sS'1121'
p953
I13
sS'1123'
p954
I33
sS'1124'
p955
I405
sS'1125'
p956
I385
sS'1126'
p957
I317
sS'1127'
p958
I1715
sS'2989'
p959
I425
sS'2988'
p960
I108
sS'3029'
p961
I190
sS'3028'
p962
I139
sS'2983'
p963
I81
sS'2982'
p964
I38
sS'3025'
p965
I14
sS'3024'
p966
I161
sS'2987'
p967
I1799
sS'3022'
p968
I206
sS'2985'
p969
I1229
sS'3020'
p970
I524
sS'524'
p971
I476
sS'525'
p972
I21
sS'526'
p973
I8
sS'527'
p974
I2304
sS'520'
p975
I374
sS'521'
p976
I117
sS'522'
p977
I83
sS'523'
p978
I117
sS'1014'
p979
I136
sS'1015'
p980
I234
sS'1016'
p981
I156
sS'1017'
p982
I276
sS'528'
p983
I68
sS'529'
p984
I720
sS'1012'
p985
I301
sS'1013'
p986
I258
sS'1234'
p987
I1049
sS'1235'
p988
I697
sS'1236'
p989
I90
sS'1237'
p990
I299
sS'1230'
p991
I1334
sS'1231'
p992
I750
sS'1232'
p993
I52
sS'1233'
p994
I1001
sS'1238'
p995
I351
sS'438'
p996
I152
sS'2487'
p997
I7
sS'436'
p998
I141
sS'437'
p999
I64
sS'434'
p1000
I686
sS'435'
p1001
I533
sS'432'
p1002
I392
sS'433'
p1003
I48
sS'2830'
p1004
I11
sS'431'
p1005
I369
sS'3809'
p1006
I817
sS'3808'
p1007
I44
sS'3805'
p1008
I34
sS'3804'
p1009
I43
sS'3807'
p1010
I106
sS'3806'
p1011
I58
sS'3801'
p1012
I199
sS'3800'
p1013
I3
sS'3803'
p1014
I9
sS'3802'
p1015
I304
sS'1630'
p1016
I1
sS'3312'
p1017
I1
sS'559'
p1018
I5
sS'2481'
p1019
I35
sS'2865'
p1020
I20
sS'2868'
p1021
I63
sS'554'
p1022
I26
sS'1851'
p1023
I2
sS'3065'
p1024
I1
sS'2465'
p1025
I42
sS'3064'
p1026
I60
sS'2466'
p1027
I13
sS'3161'
p1028
I19
sS'996'
p1029
I256
sS'238'
p1030
I32
sS'239'
p1031
I168
sS'234'
p1032
I147
sS'235'
p1033
I927
sS'236'
p1034
I326
sS'237'
p1035
I257
sS'230'
p1036
I349
sS'231'
p1037
I660
sS'232'
p1038
I346
sS'233'
p1039
I235
sS'2944'
p1040
I707
sS'993'
p1041
I9
sS'2226'
p1042
I1
sS'2227'
p1043
I21
sS'992'
p1044
I20
sS'2223'
p1045
I3
sS'2221'
p1046
I11
sS'1'
I2077
sS'2705'
p1047
I7
sS'1433'
p1048
I5
sS'2458'
p1049
I130
sS'146'
p1050
I18
sS'147'
p1051
I181
sS'144'
p1052
I433
sS'145'
p1053
I362
sS'142'
p1054
I1
sS'140'
p1055
I139
sS'141'
p1056
I682
sS'2468'
p1057
I374
sS'148'
p1058
I23
sS'998'
p1059
I93
sS'1430'
p1060
I1
sS'1055'
p1061
I19
sS'120'
p1062
I3
sS'2088'
p1063
I471
sS'2089'
p1064
I239
sS'121'
p1065
I37
sS'2082'
p1066
I361
sS'2083'
p1067
I262
sS'2080'
p1068
I864
sS'2081'
p1069
I1035
sS'2086'
p1070
I29
sS'2087'
p1071
I594
sS'2084'
p1072
I93
sS'2085'
p1073
I565
sS'3342'
p1074
I223
sS'2538'
p1075
I5
sS'2539'
p1076
I616
sS'3343'
p1077
I40
sS'2532'
p1078
I358
sS'2533'
p1079
I463
sS'2530'
p1080
I365
sS'2531'
p1081
I312
sS'2536'
p1082
I37
sS'3340'
p1083
I71
sS'2534'
p1084
I17
sS'3404'
p1085
I219
sS'2712'
p1086
I945
sS'2713'
p1087
I421
sS'2710'
p1088
I1237
sS'3341'
p1089
I177
sS'2716'
p1090
I2181
sS'2717'
p1091
I565
sS'2714'
p1092
I87
sS'2715'
p1093
I22
sS'2718'
p1094
I383
sS'2719'
p1095
I476
sS'1194'
p1096
I212
sS'130'
p1097
I2
sS'128'
p1098
I12
sS'3057'
p1099
I2
sS'3344'
p1100
I20
sS'129'
p1101
I13
sS'3345'
p1102
I23
sS'1832'
p1103
I1
sS'1833'
p1104
I264
sS'1830'
p1105
I1
sS'1831'
p1106
I667
sS'1836'
p1107
I135
sS'3798'
p1108
I463
sS'1834'
p1109
I493
sS'1835'
p1110
I366
sS'3795'
p1111
I66
sS'3794'
p1112
I121
sS'3797'
p1113
I29
sS'3796'
p1114
I13
sS'3791'
p1115
I435
sS'3790'
p1116
I51
sS'3793'
p1117
I1511
sS'3792'
p1118
I72
sS'2154'
p1119
I140
sS'2407'
p1120
I1006
sS'2404'
p1121
I301
sS'938'
p1122
I187
sS'2150'
p1123
I695
sS'2403'
p1124
I397
sS'2152'
p1125
I69
sS'2153'
p1126
I288
sS'933'
p1127
I443
sS'932'
p1128
I189
sS'931'
p1129
I206
sS'930'
p1130
I445
sS'937'
p1131
I44
sS'2159'
p1132
I219
sS'2408'
p1133
I259
sS'934'
p1134
I304
sS'2829'
p1135
I157
sS'2503'
p1136
I9
sS'1955'
p1137
I452
sS'1954'
p1138
I1129
sS'1957'
p1139
I634
sS'1956'
p1140
I507
sS'1951'
p1141
I213
sS'1950'
p1142
I348
sS'1953'
p1143
I861
sS'1952'
p1144
I663
sS'2673'
p1145
I7
sS'1959'
p1146
I626
sS'1958'
p1147
I530
sS'3249'
p1148
I340
sS'3248'
p1149
I202
sS'3243'
p1150
I293
sS'3242'
p1151
I3
sS'3241'
p1152
I57
sS'3240'
p1153
I33
sS'3247'
p1154
I666
sS'3246'
p1155
I475
sS'3245'
p1156
I5
sS'3244'
p1157
I322
sS'1825'
p1158
I33
sS'829'
p1159
I131
sS'828'
p1160
I54
sS'824'
p1161
I28
sS'827'
p1162
I2
sS'826'
p1163
I1
sS'821'
p1164
I2
sS'820'
p1165
I4
sS'823'
p1166
I4
sS'1483'
p1167
I141
sS'1482'
p1168
I63
sS'1480'
p1169
I265
sS'1487'
p1170
I162
sS'1486'
p1171
I7
sS'1485'
p1172
I666
sS'3309'
p1173
I24
sS'3306'
p1174
I24
sS'3307'
p1175
I271
sS'1489'
p1176
I37
sS'1488'
p1177
I288
sS'3302'
p1178
I53
sS'3303'
p1179
I6
sS'3300'
p1180
I542
sS'3301'
p1181
I602
sS'1713'
p1182
I231
sS'928'
p1183
I386
sS'1711'
p1184
I628
sS'1717'
p1185
I455
sS'792'
p1186
I1
sS'1715'
p1187
I13
sS'2410'
p1188
I401
sS'3050'
p1189
I16
sS'1719'
p1190
I381
sS'1992'
p1191
I133
sS'2145'
p1192
I693
sS'799'
p1193
I338
sS'798'
p1194
I204
sS'612'
p1195
I79
sS'2412'
p1196
I274
sS'613'
p1197
I82
sS'2415'
p1198
I15
sS'1272'
p1199
I645
sS'2414'
p1200
I379
sS'1139'
p1201
I2
sS'1273'
p1202
I146
sS'2417'
p1203
I74
sS'1133'
p1204
I2
sS'616'
p1205
I278
sS'1131'
p1206
I216
sS'2416'
p1207
I354
sS'1136'
p1208
I1599
sS'1135'
p1209
I407
sS'617'
p1210
I17
sS'2419'
p1211
I69
sS'614'
p1212
I9
sS'921'
p1213
I302
sS'615'
p1214
I67
sS'2062'
p1215
I70
sS'1439'
p1216
I46
sS'3018'
p1217
I248
sS'3019'
p1218
I416
sS'3012'
p1219
I10
sS'2796'
p1220
I240
sS'224'
p1221
I386
sS'3011'
p1222
I149
sS'3016'
p1223
I447
sS'3017'
p1224
I104
sS'3014'
p1225
I49
sS'2065'
p1226
I479
sS'519'
p1227
I202
sS'518'
p1228
I149
sS'2149'
p1229
I103
sS'1009'
p1230
I291
sS'1008'
p1231
I97
sS'1007'
p1232
I232
sS'510'
p1233
I42
sS'1005'
p1234
I142
sS'2067'
p1235
I564
sS'1003'
p1236
I121
sS'514'
p1237
I346
sS'517'
p1238
I382
sS'516'
p1239
I248
sS'1227'
p1240
I241
sS'1226'
p1241
I226
sS'1225'
p1242
I1382
sS'1224'
p1243
I426
sS'1223'
p1244
I473
sS'1222'
p1245
I1254
sS'1221'
p1246
I1692
sS'1220'
p1247
I1341
sS'628'
p1248
I485
sS'1228'
p1249
I677
sS'2882'
p1250
I118
sS'2883'
p1251
I277
sS'2880'
p1252
I72
sS'2881'
p1253
I786
sS'2886'
p1254
I33
sS'2887'
p1255
I4
sS'2884'
p1256
I42
sS'2885'
p1257
I61
sS'2888'
p1258
I119
sS'2889'
p1259
I287
sS'2'
I701
sS'3878'
p1260
I12
sS'3879'
p1261
I144
sS'3196'
p1262
I394
sS'3870'
p1263
I49
sS'3871'
p1264
I305
sS'3872'
p1265
I102
sS'3873'
p1266
I280
sS'3874'
p1267
I24
sS'3875'
p1268
I5
sS'3876'
p1269
I4
sS'3877'
p1270
I182
sS'1714'
p1271
I1
sS'11'
p1272
I1033
sS'10'
p1273
I888
sS'13'
p1274
I99
sS'12'
p1275
I160
sS'15'
p1276
I146
sS'14'
p1277
I153
sS'17'
p1278
I835
sS'16'
p1279
I682
sS'19'
p1280
I389
sS'18'
p1281
I157
sS'1922'
p1282
I52
sS'3275'
p1283
I92
sS'3272'
p1284
I171
sS'1925'
p1285
I45
sS'3904'
p1286
I1
sS'3905'
p1287
I8
sS'3906'
p1288
I32
sS'3900'
p1289
I33
sS'1926'
p1290
I32
sS'3902'
p1291
I24
sS'3903'
p1292
I52
sS'3027'
p1293
I7
sS'3271'
p1294
I328
sS'3908'
p1295
I92
sS'3909'
p1296
I69
sS'929'
p1297
I93
sS'2742'
p1298
I1
sS'1534'
p1299
I6
sS'1471'
p1300
I5
sS'3192'
p1301
I24
sS'3090'
p1302
I177
sS'201'
p1303
I33
sS'3474'
p1304
I16
sS'203'
p1305
I203
sS'202'
p1306
I30
sS'205'
p1307
I85
sS'204'
p1308
I203
sS'207'
p1309
I219
sS'206'
p1310
I82
sS'209'
p1311
I52
sS'208'
p1312
I651
sS'2745'
p1313
I229
sS'3476'
p1314
I667
sS'685'
p1315
I30
sS'831'
p1316
I20
sS'684'
p1317
I1
sS'3470'
p1318
I92
sS'687'
p1319
I3
sS'837'
p1320
I218
sS'2239'
p1321
I97
sS'2238'
p1322
I77
sS'1570'
p1323
I23
sS'3472'
p1324
I4
sS'2231'
p1325
I345
sS'2233'
p1326
I5
sS'835'
p1327
I103
sS'2235'
p1328
I1
sS'2234'
p1329
I8
sS'2237'
p1330
I44
sS'2236'
p1331
I202
sS'682'
p1332
I4
sS'3577'
p1333
I60
sS'2185'
p1334
I17
sS'3498'
p1335
I295
sS'3499'
p1336
I884
sS'3496'
p1337
I59
sS'3497'
p1338
I96
sS'3494'
p1339
I320
sS'228'
p1340
I13
sS'3492'
p1341
I14
sS'3493'
p1342
I2
sS'3490'
p1343
I17
sS'3491'
p1344
I66
sS'2095'
p1345
I113
sS'2094'
p1346
I736
sS'2097'
p1347
I213
sS'2096'
p1348
I511
sS'3658'
p1349
I69
sS'2090'
p1350
I249
sS'2093'
p1351
I276
sS'2092'
p1352
I163
sS'3654'
p1353
I502
sS'3655'
p1354
I50
sS'3656'
p1355
I1
sS'3657'
p1356
I6
sS'2099'
p1357
I221
sS'225'
p1358
I254
sS'3652'
p1359
I5
sS'3653'
p1360
I149
sS'2525'
p1361
I153
sS'2524'
p1362
I266
sS'2527'
p1363
I636
sS'2526'
p1364
I131
sS'2521'
p1365
I84
sS'2520'
p1366
I179
sS'2523'
p1367
I42
sS'2522'
p1368
I79
sS'2529'
p1369
I1162
sS'2528'
p1370
I626
sS'758'
p1371
I1
sS'2709'
p1372
I232
sS'2708'
p1373
I47
sS'1533'
p1374
I24
sS'2704'
p1375
I41
sS'2707'
p1376
I634
sS'2706'
p1377
I1389
sS'2701'
p1378
I902
sS'2700'
p1379
I1269
sS'2703'
p1380
I1
sS'2702'
p1381
I395
sS'1829'
p1382
I37
sS'3951'
p1383
I40
sS'1824'
p1384
I104
sS'1827'
p1385
I102
sS'1826'
p1386
I40
sS'1821'
p1387
I211
sS'1820'
p1388
I1
sS'512'
p1389
I179
sS'1822'
p1390
I21
sS'2411'
p1391
I375
sS'2146'
p1392
I352
sS'2413'
p1393
I443
sS'2144'
p1394
I719
sS'2143'
p1395
I355
sS'2142'
p1396
I201
sS'2141'
p1397
I404
sS'2140'
p1398
I710
sS'920'
p1399
I1156
sS'2418'
p1400
I110
sS'922'
p1401
I470
sS'923'
p1402
I1116
sS'924'
p1403
I1716
sS'925'
p1404
I12
sS'926'
p1405
I403
sS'2148'
p1406
I166
sS'3669'
p1407
I71
sS'3950'
p1408
I54
sS'1920'
p1409
I364
sS'1921'
p1410
I613
sS'3274'
p1411
I438
sS'1923'
p1412
I1371
sS'1924'
p1413
I249
sS'3273'
p1414
I577
sS'3270'
p1415
I200
sS'1927'
p1416
I268
sS'1928'
p1417
I29
sS'1929'
p1418
I84
sS'832'
p1419
I564
sS'833'
p1420
I78
sS'830'
p1421
I295
sS'3477'
p1422
I271
sS'836'
p1423
I237
sS'3471'
p1424
I1451
sS'834'
p1425
I4
sS'3473'
p1426
I24
sS'838'
p1427
I501
sS'839'
p1428
I135
sS'3478'
p1429
I266
sS'3479'
p1430
I542
sS'3'
I478
sS'2727'
p1431
I32
sS'3319'
p1432
I28
sS'3318'
p1433
I48
sS'2594'
p1434
I62
sS'3311'
p1435
I33
sS'3310'
p1436
I62
sS'3313'
p1437
I20
sS'1564'
p1438
I36
sS'3315'
p1439
I1
sS'3314'
p1440
I4
sS'3317'
p1441
I496
sS'3316'
p1442
I289
sS'784'
p1443
I385
sS'785'
p1444
I765
sS'786'
p1445
I460
sS'787'
p1446
I3
sS'780'
p1447
I1730
sS'781'
p1448
I103
sS'782'
p1449
I145
sS'783'
p1450
I390
sS'1726'
p1451
I137
sS'1727'
p1452
I210
sS'1724'
p1453
I1
sS'1725'
p1454
I23
sS'788'
p1455
I948
sS'789'
p1456
I2
sS'1720'
p1457
I7
sS'1721'
p1458
I1546
sS'2439'
p1459
I198
sS'3005'
p1460
I640
sS'3004'
p1461
I252
sS'62'
p1462
I541
sS'3006'
p1463
I884
sS'64'
p1464
I79
sS'65'
p1465
I143
sS'66'
p1466
I97
sS'3002'
p1467
I35
sS'68'
p1468
I60
sS'69'
p1469
I319
sS'3008'
p1470
I51
sS'407'
p1471
I193
sS'1588'
p1472
I289
sS'1589'
p1473
I492
sS'406'
p1474
I8
sS'1582'
p1475
I60
sS'1583'
p1476
I27
sS'1580'
p1477
I2538
sS'1581'
p1478
I59
sS'1586'
p1479
I557
sS'1587'
p1480
I572
sS'1584'
p1481
I1382
sS'1585'
p1482
I28
sS'159'
p1483
I116
sS'1038'
p1484
I11
sS'1039'
p1485
I3
sS'508'
p1486
I561
sS'1982'
p1487
I506
sS'506'
p1488
I114
sS'1033'
p1489
I287
sS'1030'
p1490
I323
sS'1031'
p1491
I319
sS'1036'
p1492
I1666
sS'1037'
p1493
I615
sS'1034'
p1494
I169
sS'1035'
p1495
I882
sS'1212'
p1496
I480
sS'1213'
p1497
I1657
sS'1210'
p1498
I2883
sS'633'
p1499
I20
sS'1216'
p1500
I87
sS'1217'
p1501
I357
sS'1214'
p1502
I2024
sS'1215'
p1503
I945
sS'638'
p1504
I19
sS'639'
p1505
I78
sS'1218'
p1506
I244
sS'1219'
p1507
I1263
sS'3335'
p1508
I12
sS'2899'
p1509
I117
sS'2898'
p1510
I102
sS'2895'
p1511
I2
sS'2894'
p1512
I32
sS'2897'
p1513
I20
sS'1729'
p1514
I724
sS'2891'
p1515
I185
sS'2890'
p1516
I1021
sS'2893'
p1517
I42
sS'2892'
p1518
I12
sS'1454'
p1519
I82
sS'1455'
p1520
I22
sS'1104'
p1521
I483
sS'1457'
p1522
I266
sS'1102'
p1523
I4
sS'1103'
p1524
I402
sS'1100'
p1525
I420
sS'1101'
p1526
I1010
sS'1458'
p1527
I24
sS'1459'
p1528
I380
sS'464'
p1529
I216
sS'3862'
p1530
I20
sS'149'
p1531
I47
sS'3869'
p1532
I431
sS'3868'
p1533
I692
sS'3863'
p1534
I658
sS'1722'
p1535
I862
sS'3861'
p1536
I241
sS'3860'
p1537
I16
sS'3867'
p1538
I12
sS'3866'
p1539
I6
sS'3865'
p1540
I147
sS'3864'
p1541
I143
sS'3737'
p1542
I50
sS'3837'
p1543
I89
sS'3736'
p1544
I39
sS'1896'
p1545
I47
sS'3734'
p1546
I57
sS'1890'
p1547
I7
sS'3732'
p1548
I71
sS'3731'
p1549
I43
sS'1893'
p1550
I21
sS'3917'
p1551
I279
sS'3916'
p1552
I437
sS'3915'
p1553
I127
sS'3914'
p1554
I70
sS'3913'
p1555
I32
sS'3912'
p1556
I40
sS'3911'
p1557
I657
sS'3910'
p1558
I200
sS'3919'
p1559
I87
sS'3918'
p1560
I167
sS'255'
p1561
I66
sS'2285'
p1562
I54
sS'2945'
p1563
I28
sS'3071'
p1564
I327
sS'216'
p1565
I355
sS'217'
p1566
I64
sS'214'
p1567
I28
sS'215'
p1568
I160
sS'212'
p1569
I14
sS'213'
p1570
I123
sS'210'
p1571
I41
sS'211'
p1572
I34
sS'218'
p1573
I195
sS'219'
p1574
I22
sS'578'
p1575
I2
sS'3094'
p1576
I101
sS'957'
p1577
I37
sS'956'
p1578
I40
sS'462'
p1579
I28
sS'939'
p1580
I11
sS'4'
I170
sS'3569'
p1581
I37
sS'439'
p1582
I2
sS'3489'
p1583
I722
sS'3488'
p1584
I22
sS'2593'
p1585
I35
sS'3481'
p1586
I1373
sS'3480'
p1587
I155
sS'3284'
p1588
I45
sS'3482'
p1589
I3
sS'3485'
p1590
I2
sS'3484'
p1591
I302
sS'3487'
p1592
I68
sS'3486'
p1593
I10
sS'3649'
p1594
I295
sS'3648'
p1595
I9
sS'3647'
p1596
I1
sS'3646'
p1597
I180
sS'3645'
p1598
I18
sS'3644'
p1599
I17
sS'3643'
p1600
I101
sS'3642'
p1601
I13
sS'3641'
p1602
I8
sS'3640'
p1603
I12
sS'2550'
p1604
I183
sS'60'
p1605
I357
sS'2552'
p1606
I37
sS'2553'
p1607
I219
sS'2554'
p1608
I136
sS'2555'
p1609
I164
sS'2556'
p1610
I1
sS'61'
p1611
I67
sS'2558'
p1612
I235
sS'2559'
p1613
I27
sS'3007'
p1614
I295
sS'2396'
p1615
I2369
sS'2397'
p1616
I23
sS'2394'
p1617
I579
sS'2395'
p1618
I1220
sS'2392'
p1619
I205
sS'2393'
p1620
I807
sS'2390'
p1621
I330
sS'2391'
p1622
I745
sS'3001'
p1623
I6
sS'2398'
p1624
I380
sS'3000'
p1625
I345
sS'2778'
p1626
I29
sS'2779'
p1627
I345
sS'3003'
p1628
I8
sS'2770'
p1629
I935
sS'2771'
p1630
I171
sS'2772'
p1631
I246
sS'67'
p1632
I4
sS'2774'
p1633
I68
sS'2775'
p1634
I14
sS'2776'
p1635
I13
sS'2777'
p1636
I5
sS'3166'
p1637
I6
sS'2803'
p1638
I346
sS'3940'
p1639
I15
sS'3164'
p1640
I1
sS'1858'
p1641
I172
sS'1859'
p1642
I32
sS'3165'
p1643
I61
sS'3281'
p1644
I49
sS'1850'
p1645
I13
sS'3162'
p1646
I21
sS'1852'
p1647
I1
sS'1853'
p1648
I17
sS'1854'
p1649
I48
sS'1855'
p1650
I108
sS'1856'
p1651
I72
sS'2807'
p1652
I91
sS'2172'
p1653
I4
sS'2173'
p1654
I110
sS'2170'
p1655
I123
sS'2171'
p1656
I196
sS'2176'
p1657
I191
sS'918'
p1658
I189
sS'2174'
p1659
I1495
sS'2175'
p1660
I18
sS'915'
p1661
I365
sS'914'
p1662
I636
sS'2178'
p1663
I95
sS'916'
p1664
I425
sS'911'
p1665
I306
sS'910'
p1666
I832
sS'913'
p1667
I1043
sS'912'
p1668
I1669
sS'2605'
p1669
I777
sS'3280'
p1670
I1
sS'2607'
p1671
I68
sS'2600'
p1672
I410
sS'2602'
p1673
I6
sS'1420'
p1674
I7
sS'2608'
p1675
I5
sS'2609'
p1676
I67
sS'3261'
p1677
I429
sS'3260'
p1678
I480
sS'3263'
p1679
I667
sS'3262'
p1680
I163
sS'3265'
p1681
I327
sS'3264'
p1682
I512
sS'3267'
p1683
I483
sS'3266'
p1684
I154
sS'3269'
p1685
I477
sS'3268'
p1686
I179
sS'1939'
p1687
I236
sS'1938'
p1688
I122
sS'2051'
p1689
I101
sS'3467'
p1690
I279
sS'3466'
p1691
I219
sS'3465'
p1692
I18
sS'3464'
p1693
I20
sS'3463'
p1694
I10
sS'842'
p1695
I151
sS'3461'
p1696
I353
sS'840'
p1697
I50
sS'1426'
p1698
I23
sS'849'
p1699
I511
sS'3468'
p1700
I450
sS'3364'
p1701
I151
sS'3365'
p1702
I245
sS'2050'
p1703
I104
sS'1995'
p1704
I182
sS'3367'
p1705
I43
sS'3021'
p1706
I36
sS'1739'
p1707
I47
sS'1731'
p1708
I64
sS'1730'
p1709
I176
sS'1733'
p1710
I82
sS'1732'
p1711
I1097
sS'1735'
p1712
I263
sS'1734'
p1713
I201
sS'732'
p1714
I6
sS'3134'
p1715
I165
sS'753'
p1716
I32
sS'3782'
p1717
I44
sS'751'
p1718
I15
sS'750'
p1719
I1367
sS'757'
p1720
I4
sS'756'
p1721
I4
sS'755'
p1722
I9
sS'3783'
p1723
I235
sS'759'
p1724
I59
sS'509'
p1725
I608
sS'3780'
p1726
I41
sS'2586'
p1727
I25
sS'3070'
p1728
I611
sS'1594'
p1729
I307
sS'3072'
p1730
I982
sS'1596'
p1731
I32
sS'1591'
p1732
I475
sS'2959'
p1733
I1451
sS'1593'
p1734
I162
sS'507'
p1735
I308
sS'3078'
p1736
I155
sS'3079'
p1737
I145
sS'2956'
p1738
I141
sS'2950'
p1739
I346
sS'2951'
p1740
I522
sS'2952'
p1741
I186
sS'2953'
p1742
I341
sS'1025'
p1743
I293
sS'1024'
p1744
I126
sS'1027'
p1745
I344
sS'505'
p1746
I69
sS'1021'
p1747
I247
sS'1020'
p1748
I392
sS'1023'
p1749
I221
sS'1022'
p1750
I577
sS'3150'
p1751
I60
sS'502'
p1752
I155
sS'1115'
p1753
I1
sS'1029'
p1754
I568
sS'1028'
p1755
I1011
sS'503'
p1756
I13
sS'3323'
p1757
I1
sS'500'
p1758
I838
sS'501'
p1759
I94
sS'605'
p1760
I226
sS'630'
p1761
I7
sS'607'
p1762
I2
sS'606'
p1763
I93
sS'1209'
p1764
I173
sS'1208'
p1765
I1176
sS'603'
p1766
I58
sS'631'
p1767
I75
sS'1205'
p1768
I231
sS'1204'
p1769
I831
sS'1207'
p1770
I928
sS'1206'
p1771
I1229
sS'1201'
p1772
I822
sS'1200'
p1773
I1820
sS'1203'
p1774
I616
sS'1202'
p1775
I72
sS'1211'
p1776
I242
sS'634'
p1777
I3
sS'935'
p1778
I71
sS'635'
p1779
I77
sS'3108'
p1780
I945
sS'3109'
p1781
I64
sS'3104'
p1782
I765
sS'3105'
p1783
I680
sS'3106'
p1784
I25
sS'3107'
p1785
I869
sS'3100'
p1786
I623
sS'3101'
p1787
I802
sS'3102'
p1788
I244
sS'3103'
p1789
I68
sS'1111'
p1790
I94
sS'1446'
p1791
I189
sS'1445'
p1792
I156
sS'1112'
p1793
I35
sS'5'
I296
sS'1442'
p1794
I71
sS'1441'
p1795
I481
sS'1352'
p1796
I94
sS'1119'
p1797
I34
sS'1118'
p1798
I1
sS'1351'
p1799
I35
sS'1449'
p1800
I462
sS'466'
p1801
I573
sS'78'
p1802
I50
sS'461'
p1803
I86
sS'450'
p1804
I228
sS'460'
p1805
I38
sS'1355'
p1806
I77
sS'489'
p1807
I97
sS'488'
p1808
I39
sS'487'
p1809
I62
sS'486'
p1810
I64
sS'485'
p1811
I500
sS'1354'
p1812
I267
sS'483'
p1813
I74
sS'482'
p1814
I176
sS'481'
p1815
I294
sS'480'
p1816
I2672
sS'991'
p1817
I170
sS'990'
p1818
I54
sS'695'
p1819
I135
sS'3922'
p1820
I39
sS'3923'
p1821
I104
sS'3920'
p1822
I66
sS'3921'
p1823
I47
sS'3926'
p1824
I180
sS'3927'
p1825
I348
sS'3924'
p1826
I26
sS'3925'
p1827
I124
sS'3928'
p1828
I206
sS'3929'
p1829
I147
sS'1565'
p1830
I17
sS'3857'
p1831
I60
sS'3854'
p1832
I20
sS'3855'
p1833
I39
sS'3852'
p1834
I208
sS'3853'
p1835
I13
sS'3850'
p1836
I13
sS'3851'
p1837
I40
sS'3858'
p1838
I69
sS'3859'
p1839
I82
sS'3665'
p1840
I26
sS'2896'
p1841
I28
sS'199'
p1842
I117
sS'198'
p1843
I605
sS'3664'
p1844
I54
sS'195'
p1845
I164
sS'194'
p1846
I213
sS'197'
p1847
I17
sS'196'
p1848
I550
sS'191'
p1849
I75
sS'190'
p1850
I100
sS'193'
p1851
I217
sS'192'
p1852
I2
sS'3678'
p1853
I90
sS'3679'
p1854
I62
sS'3672'
p1855
I156
sS'3673'
p1856
I31
sS'3670'
p1857
I21
sS'3671'
p1858
I1119
sS'3676'
p1859
I199
sS'3677'
p1860
I45
sS'3674'
p1861
I47
sS'3675'
p1862
I271
sS'2543'
p1863
I2
sS'2542'
p1864
I625
sS'2541'
p1865
I559
sS'2540'
p1866
I156
sS'2546'
p1867
I169
sS'2545'
p1868
I12
sS'2544'
p1869
I18
sS'2549'
p1870
I175
sS'2548'
p1871
I105
sS'1456'
p1872
I64
sS'2381'
p1873
I174
sS'2380'
p1874
I196
sS'2383'
p1875
I149
sS'2382'
p1876
I150
sS'2385'
p1877
I146
sS'2384'
p1878
I523
sS'2387'
p1879
I217
sS'2386'
p1880
I59
sS'2389'
p1881
I264
sS'1450'
p1882
I14
sS'3580'
p1883
I29
sS'3581'
p1884
I14
sS'2769'
p1885
I77
sS'2768'
p1886
I13
sS'3584'
p1887
I129
sS'3585'
p1888
I19
sS'3586'
p1889
I28
sS'3587'
p1890
I30
sS'2763'
p1891
I1089
sS'2762'
p1892
I2459
sS'2761'
p1893
I674
sS'1453'
p1894
I148
sS'2767'
p1895
I25
sS'2766'
p1896
I33
sS'2765'
p1897
I7
sS'2764'
p1898
I280
sS'902'
p1899
I676
sS'903'
p1900
I905
sS'900'
p1901
I343
sS'901'
p1902
I174
sS'906'
p1903
I187
sS'907'
p1904
I105
sS'904'
p1905
I1050
sS'905'
p1906
I374
sS'1843'
p1907
I1
sS'420'
p1908
I352
sS'908'
p1909
I1315
sS'1840'
p1910
I160
sS'1846'
p1911
I20
sS'1845'
p1912
I301
sS'1844'
p1913
I29
sS'1942'
p1914
I119
sS'2169'
p1915
I130
sS'2168'
p1916
I79
sS'1943'
p1917
I61
sS'2165'
p1918
I109
sS'2164'
p1919
I20
sS'2167'
p1920
I809
sS'2166'
p1921
I144
sS'2161'
p1922
I699
sS'2160'
p1923
I712
sS'2163'
p1924
I206
sS'2162'
p1925
I177
sS'2617'
p1926
I1007
sS'2616'
p1927
I624
sS'2615'
p1928
I189
sS'1941'
p1929
I113
sS'2613'
p1930
I281
sS'2612'
p1931
I136
sS'2611'
p1932
I146
sS'2610'
p1933
I41
sS'1946'
p1934
I205
sS'2619'
p1935
I1
sS'1947'
p1936
I761
sS'3298'
p1937
I590
sS'1944'
p1938
I364
sS'1908'
p1939
I1
sS'1909'
p1940
I996
sS'1906'
p1941
I32
sS'1907'
p1942
I490
sS'3296'
p1943
I203
sS'1945'
p1944
I519
sS'1902'
p1945
I30
sS'1903'
p1946
I6
sS'1900'
p1947
I61
sS'3293'
p1948
I5
sS'3452'
p1949
I331
sS'3453'
p1950
I89
sS'3450'
p1951
I809
sS'3451'
p1952
I350
sS'3456'
p1953
I65
sS'3457'
p1954
I141
sS'852'
p1955
I615
sS'853'
p1956
I3
sS'3458'
p1957
I1
sS'3459'
p1958
I62
sS'858'
p1959
I2223
sS'859'
p1960
I1
sS'6'
I940
sS'641'
p1961
I1
sS'1184'
p1962
I91
sS'1554'
p1963
I138
sS'741'
p1964
I314
sS'742'
p1965
I174
sS'743'
p1966
I107
sS'744'
p1967
I3
sS'745'
p1968
I657
sS'746'
p1969
I31
sS'747'
p1970
I55
sS'748'
p1971
I417
sS'749'
p1972
I4
sS'1799'
p1973
I213
sS'3063'
p1974
I139
sS'3062'
p1975
I352
sS'3061'
p1976
I275
sS'3060'
p1977
I558
sS'3067'
p1978
I353
sS'3066'
p1979
I194
sS'2949'
p1980
I646
sS'2948'
p1981
I771
sS'2947'
p1982
I897
sS'2946'
p1983
I291
sS'3069'
p1984
I55
sS'3068'
p1985
I379
sS'2943'
p1986
I160
sS'2942'
p1987
I362
sS'2941'
p1988
I280
sS'2940'
p1989
I107
sS'1050'
p1990
I146
sS'1051'
p1991
I98
sS'1053'
p1992
I35
sS'1054'
p1993
I81
sS'719'
p1994
I239
sS'1056'
p1995
I50
sS'1057'
p1996
I274
sS'1058'
p1997
I11
sS'1059'
p1998
I479
sS'718'
p1999
I33
sS'1905'
p2000
I2
sS'1696'
p2001
I28
sS'717'
p2002
I1
sS'1694'
p2003
I471
sS'1695'
p2004
I32
sS'1692'
p2005
I20
sS'1693'
p2006
I351
sS'1690'
p2007
I779
sS'2919'
p2008
I391
sS'1791'
p2009
I53
sS'1699'
p2010
I155
sS'1278'
p2011
I1193
sS'1279'
p2012
I194
sS'618'
p2013
I9
sS'619'
p2014
I32
sS'1270'
p2015
I2583
sS'1271'
p2016
I593
sS'610'
p2017
I618
sS'611'
p2018
I216
sS'1274'
p2019
I452
sS'1275'
p2020
I741
sS'1276'
p2021
I930
sS'1277'
p2022
I363
sS'1795'
p2023
I2
sS'710'
p2024
I51
sS'3333'
p2025
I16
sS'3119'
p2026
I3
sS'3118'
p2027
I66
sS'3117'
p2028
I73
sS'3116'
p2029
I11
sS'3115'
p2030
I110
sS'3114'
p2031
I1585
sS'3113'
p2032
I564
sS'3112'
p2033
I70
sS'3111'
p2034
I213
sS'3110'
p2035
I33
sS'1472'
p2036
I48
sS'1473'
p2037
I40
sS'1470'
p2038
I1
sS'3330'
p2039
I108
sS'1476'
p2040
I499
sS'1477'
p2041
I27
sS'1474'
p2042
I146
sS'1475'
p2043
I81
sS'3337'
p2044
I2
sS'1479'
p2045
I563
sS'3336'
p2046
I2
sS'1304'
p2047
I1419
sS'1305'
p2048
I121
sS'1306'
p2049
I136
sS'1307'
p2050
I1568
sS'1300'
p2051
I330
sS'1301'
p2052
I373
sS'1302'
p2053
I768
sS'1303'
p2054
I310
sS'1497'
p2055
I48
sS'2596'
p2056
I139
sS'2597'
p2057
I64
sS'498'
p2058
I47
sS'499'
p2059
I49
sS'494'
p2060
I416
sS'2590'
p2061
I48
sS'496'
p2062
I37
sS'497'
p2063
I667
sS'490'
p2064
I185
sS'491'
p2065
I212
sS'492'
p2066
I335
sS'493'
p2067
I298
sS'24'
p2068
I624
sS'25'
p2069
I980
sS'26'
p2070
I100
sS'27'
p2071
I61
sS'20'
p2072
I160
sS'21'
p2073
I1356
sS'22'
p2074
I378
sS'23'
p2075
I126
sS'927'
p2076
I84
sS'28'
p2077
I179
sS'29'
p2078
I403
sS'3187'
p2079
I3
sS'2591'
p2080
I2
sS'3939'
p2081
I26
sS'3938'
p2082
I27
sS'3935'
p2083
I23
sS'3934'
p2084
I28
sS'3937'
p2085
I135
sS'3936'
p2086
I112
sS'3931'
p2087
I27
sS'3930'
p2088
I223
sS'3933'
p2089
I16
sS'3932'
p2090
I232
sS'1241'
p2091
I70
sS'2592'
p2092
I1
sS'1516'
p2093
I52
sS'3841'
p2094
I306
sS'3840'
p2095
I112
sS'3843'
p2096
I30
sS'1875'
p2097
I164
sS'3845'
p2098
I28
sS'3844'
p2099
I408
sS'3847'
p2100
I25
sS'3846'
p2101
I138
sS'3849'
p2102
I43
sS'3848'
p2103
I20
sS'874'
p2104
I8
sS'7'
I458
sS'1879'
p2105
I22
sS'2288'
p2106
I741
sS'2289'
p2107
I978
sS'3667'
p2108
I35
sS'3666'
p2109
I6
sS'3661'
p2110
I82
sS'3660'
p2111
I157
sS'3663'
p2112
I58
sS'3662'
p2113
I92
sS'2280'
p2114
I125
sS'2281'
p2115
I11
sS'2282'
p2116
I316
sS'2283'
p2117
I61
sS'2284'
p2118
I43
sS'3668'
p2119
I356
sS'2286'
p2120
I43
sS'2287'
p2121
I280
sS'411'
p2122
I13
sS'2578'
p2123
I4
sS'2579'
p2124
I29
sS'2576'
p2125
I3
sS'2577'
p2126
I28
sS'2574'
p2127
I199
sS'2575'
p2128
I141
sS'2572'
p2129
I700
sS'2573'
p2130
I48
sS'2570'
p2131
I102
sS'2571'
p2132
I2590
sS'3690'
p2133
I122
sS'2378'
p2134
I413
sS'2379'
p2135
I225
sS'3691'
p2136
I42
sS'2374'
p2137
I244
sS'2375'
p2138
I418
sS'2376'
p2139
I325
sS'2377'
p2140
I183
sS'2370'
p2141
I142
sS'2371'
p2142
I599
sS'2372'
p2143
I238
sS'2373'
p2144
I189
sS'3593'
p2145
I342
sS'3592'
p2146
I8
sS'3591'
p2147
I628
sS'3590'
p2148
I85
sS'3597'
p2149
I37
sS'3596'
p2150
I60
sS'3595'
p2151
I4
sS'3594'
p2152
I182
sS'3599'
p2153
I103
sS'3598'
p2154
I179
sS'2598'
p2155
I533
sS'2599'
p2156
I1522
sS'1876'
p2157
I895
sS'1877'
p2158
I4
sS'1874'
p2159
I27
sS'592'
p2160
I1431
sS'1872'
p2161
I10
sS'1873'
p2162
I259
sS'1870'
p2163
I72
sS'1871'
p2164
I4
sS'600'
p2165
I30
sS'1083'
p2166
I164
sS'1878'
p2167
I11
sS'1082'
p2168
I154
sS'977'
p2169
I2
sS'976'
p2170
I56
sS'975'
p2171
I2
sS'974'
p2172
I16
sS'973'
p2173
I82
sS'1081'
p2174
I434
sS'971'
p2175
I271
sS'970'
p2176
I37
sS'1080'
p2177
I926
sS'978'
p2178
I100
sS'2118'
p2179
I363
sS'2119'
p2180
I147
sS'180'
p2181
I451
sS'181'
p2182
I93
sS'186'
p2183
I211
sS'187'
p2184
I105
sS'184'
p2185
I26
sS'185'
p2186
I569
sS'2110'
p2187
I367
sS'2111'
p2188
I312
sS'188'
p2189
I190
sS'2113'
p2190
I79
sS'2114'
p2191
I256
sS'2115'
p2192
I1127
sS'2116'
p2193
I438
sS'2117'
p2194
I278
sS'2622'
p2195
I415
sS'2623'
p2196
I4
sS'2620'
p2197
I36
sS'2621'
p2198
I69
sS'2626'
p2199
I35
sS'2627'
p2200
I14
sS'2624'
p2201
I102
sS'2625'
p2202
I66
sS'2628'
p2203
I2250
sS'2629'
p2204
I144
sS'1919'
p2205
I116
sS'1918'
p2206
I669
sS'3289'
p2207
I52
sS'3288'
p2208
I4
sS'3287'
p2209
I129
sS'3286'
p2210
I122
sS'3285'
p2211
I423
sS'1912'
p2212
I908
sS'3283'
p2213
I15
sS'1914'
p2214
I372
sS'1917'
p2215
I1110
sS'1916'
p2216
I354
sS'869'
p2217
I42
sS'1728'
p2218
I22
sS'189'
p2219
I15
sS'3449'
p2220
I34
sS'3448'
p2221
I1082
sS'861'
p2222
I273
sS'860'
p2223
I10
sS'3447'
p2224
I72
sS'3446'
p2225
I39
sS'3441'
p2226
I475
sS'3440'
p2227
I188
sS'867'
p2228
I24
sS'866'
p2229
I572
sS'2024'
p2230
I148
sS'2025'
p2231
I221
sS'2026'
p2232
I161
sS'2027'
p2233
I129
sS'2020'
p2234
I773
sS'2021'
p2235
I789
sS'2750'
p2236
I285
sS'2023'
p2237
I774
sS'3144'
p2238
I49
sS'3239'
p2239
I37
sS'2028'
p2240
I2653
sS'2029'
p2241
I76
sS'2758'
p2242
I31
sS'2759'
p2243
I430
sS'882'
p2244
I59
sS'881'
p2245
I77
sS'880'
p2246
I324
sS'887'
p2247
I2
sS'886'
p2248
I104
sS'885'
p2249
I43
sS'884'
p2250
I2
sS'889'
p2251
I2
sS'888'
p2252
I48
sS'2824'
p2253
I14
sS'2825'
p2254
I4
sS'657'
p2255
I2
sS'63'
p2256
I111
sS'418'
p2257
I29
sS'775'
p2258
I9
sS'774'
p2259
I1
sS'776'
p2260
I4
sS'771'
p2261
I18
sS'779'
p2262
I52
sS'778'
p2263
I751
sS'77'
p2264
I34
sS'76'
p2265
I178
sS'2978'
p2266
I103
sS'74'
p2267
I120
sS'73'
p2268
I224
sS'72'
p2269
I93
sS'71'
p2270
I96
sS'70'
p2271
I914
sS'3056'
p2272
I6
sS'2973'
p2273
I460
sS'3054'
p2274
I136
sS'2971'
p2275
I317
sS'3052'
p2276
I989
sS'3053'
p2277
I341
sS'79'
p2278
I114
sS'2975'
p2279
I111
sS'1043'
p2280
I108
sS'1042'
p2281
I528
sS'1041'
p2282
I474
sS'1040'
p2283
I5
sS'1047'
p2284
I434
sS'1046'
p2285
I90
sS'1044'
p2286
I35
sS'1049'
p2287
I451
sS'1681'
p2288
I134
sS'1680'
p2289
I464
sS'1683'
p2290
I218
sS'1682'
p2291
I1005
sS'1685'
p2292
I6
sS'1684'
p2293
I58
sS'1687'
p2294
I337
sS'1686'
p2295
I109
sS'1689'
p2296
I252
sS'1688'
p2297
I304
sS'358'
p2298
I141
sS'2981'
p2299
I15
sS'868'
p2300
I1
sS'1269'
p2301
I672
sS'1268'
p2302
I317
sS'669'
p2303
I23
sS'668'
p2304
I47
sS'1263'
p2305
I700
sS'1262'
p2306
I696
sS'1261'
p2307
I548
sS'664'
p2308
I8
sS'663'
p2309
I264
sS'1266'
p2310
I997
sS'1265'
p2311
I2278
sS'1264'
p2312
I257
sS'1911'
p2313
I527
sS'1507'
p2314
I42
sS'1910'
p2315
I41
sS'2984'
p2316
I9
sS'1913'
p2317
I167
sS'3128'
p2318
I51
sS'3129'
p2319
I288
sS'3122'
p2320
I29
sS'640'
p2321
I71
sS'3120'
p2322
I130
sS'3121'
p2323
I18
sS'3126'
p2324
I3
sS'3127'
p2325
I56
sS'3124'
p2326
I34
sS'3282'
p2327
I10
sS'1468'
p2328
I144
sS'1465'
p2329
I126
sS'1464'
p2330
I145
sS'1466'
p2331
I719
sS'1461'
p2332
I216
sS'1460'
p2333
I94
sS'1463'
p2334
I34
sS'1019'
p2335
I575
sS'1317'
p2336
I40
sS'1316'
p2337
I1
sS'1315'
p2338
I3
sS'1313'
p2339
I13
sS'1312'
p2340
I29
sS'1311'
p2341
I7
sS'1310'
p2342
I43
sS'3276'
p2343
I46
sS'767'
p2344
I24
sS'3277'
p2345
I1
sS'1010'
p2346
I242
sS'1011'
p2347
I135
sS'3445'
p2348
I139
sS'3123'
p2349
I3
sS'3444'
p2350
I222
sS'712'
p2351
I2
sS'1404'
p2352
I76
sS'863'
p2353
I10
sS'3948'
p2354
I862
sS'3949'
p2355
I304
sS'319'
p2356
I273
sS'318'
p2357
I2227
sS'3403'
p2358
I32
sS'313'
p2359
I54
sS'312'
p2360
I112
sS'3942'
p2361
I28
sS'3943'
p2362
I96
sS'317'
p2363
I641
sS'316'
p2364
I1116
sS'315'
p2365
I153
sS'314'
p2366
I300
sS'3299'
p2367
I176
sS'3443'
p2368
I5
sS'3442'
p2369
I39
sS'1520'
p2370
I15
sS'2756'
p2371
I32
sS'3402'
p2372
I23
sS'2757'
p2373
I135
sS'2754'
p2374
I12
sS'443'
p2375
I31
sS'2755'
p2376
I31
sS'1334'
p2377
I338
sS'2752'
p2378
I185
sS'2211'
p2379
I19
sS'1337'
p2380
I64
sS'2753'
p2381
I57
sS'1336'
p2382
I55
sS'2022'
p2383
I254
sS'447'
p2384
I31
sS'2751'
p2385
I54
sS'1330'
p2386
I116
sS'1333'
p2387
I733
sS'1709'
p2388
I1
sS'1332'
p2389
I102
sS'2690'
p2390
I390
sS'3407'
p2391
I3
sS'3610'
p2392
I34
sS'3611'
p2393
I15
sS'3612'
p2394
I30
sS'3613'
p2395
I94
sS'3614'
p2396
I542
sS'3615'
p2397
I345
sS'3616'
p2398
I138
sS'3617'
p2399
I419
sS'3618'
p2400
I369
sS'3619'
p2401
I92
sS'2291'
p2402
I1473
sS'2290'
p2403
I121
sS'2297'
p2404
I355
sS'2296'
p2405
I144
sS'2295'
p2406
I74
sS'2294'
p2407
I645
sS'404'
p2408
I4
sS'3842'
p2409
I1
sS'2569'
p2410
I9
sS'2568'
p2411
I214
sS'2561'
p2412
I131
sS'2560'
p2413
I171
sS'2563'
p2414
I1
sS'862'
p2415
I31
sS'2565'
p2416
I372
sS'2567'
p2417
I302
sS'2566'
p2418
I40
sS'2369'
p2419
I840
sS'2368'
p2420
I58
sS'2367'
p2421
I309
sS'2366'
p2422
I756
sS'2365'
p2423
I136
sS'2364'
p2424
I121
sS'2363'
p2425
I301
sS'2362'
p2426
I53
sS'2361'
p2427
I158
sS'2360'
p2428
I117
sS'2587'
p2429
I102
sS'659'
p2430
I25
sS'2585'
p2431
I48
sS'2584'
p2432
I1
sS'2583'
p2433
I235
sS'2582'
p2434
I66
sS'2581'
p2435
I624
sS'2580'
p2436
I723
sS'865'
p2437
I1
sS'402'
p2438
I1
sS'2589'
p2439
I64
sS'1861'
p2440
I3
sS'1860'
p2441
I44
sS'1863'
p2442
I142
sS'1862'
p2443
I198
sS'3728'
p2444
I148
sS'3729'
p2445
I222
sS'1867'
p2446
I38
sS'1866'
p2447
I189
sS'3724'
p2448
I195
sS'3725'
p2449
I112
sS'3726'
p2450
I98
sS'3727'
p2451
I148
sS'3720'
p2452
I87
sS'3721'
p2453
I24
sS'3722'
p2454
I1
sS'3723'
p2455
I269
sS'964'
p2456
I51
sS'965'
p2457
I253
sS'966'
p2458
I6
sS'967'
p2459
I23
sS'960'
p2460
I20
sS'961'
p2461
I23
sS'962'
p2462
I11
sS'963'
p2463
I54
sS'1613'
p2464
I30
sS'401'
p2465
I2
sS'968'
p2466
I715
sS'969'
p2467
I1057
sS'2109'
p2468
I573
sS'2108'
p2469
I825
sS'2103'
p2470
I37
sS'2102'
p2471
I197
sS'2101'
p2472
I15
sS'2100'
p2473
I1163
sS'2107'
p2474
I199
sS'2106'
p2475
I185
sS'2105'
p2476
I970
sS'2104'
p2477
I53
sS'2639'
p2478
I163
sS'2638'
p2479
I36
sS'2635'
p2480
I31
sS'2634'
p2481
I93
sS'2637'
p2482
I33
sS'2636'
p2483
I13
sS'2631'
p2484
I5
sS'2630'
p2485
I41
sS'2633'
p2486
I162
sS'2632'
p2487
I11
sS'2986'
p2488
I493
sS'3438'
p2489
I534
sS'3439'
p2490
I251
sS'878'
p2491
I1
sS'879'
p2492
I237
sS'3430'
p2493
I220
sS'3431'
p2494
I85
sS'3432'
p2495
I72
sS'875'
p2496
I44
sS'3434'
p2497
I38
sS'1243'
p2498
I325
sS'3436'
p2499
I128
sS'3437'
p2500
I12
sS'2037'
p2501
I54
sS'2036'
p2502
I96
sS'2035'
p2503
I57
sS'3091'
p2504
I141
sS'2033'
p2505
I200
sS'2744'
p2506
I38
sS'2747'
p2507
I356
sS'2746'
p2508
I936
sS'9'
I102
sS'3096'
p2509
I93
sS'3483'
p2510
I168
sS'2039'
p2511
I1
sS'3097'
p2512
I206
sS'891'
p2513
I183
sS'637'
p2514
I140
sS'893'
p2515
I69
sS'647'
p2516
I441
sS'896'
p2517
I51
sS'897'
p2518
I98
sS'898'
p2519
I582
sS'899'
p2520
I751
sS'3095'
p2521
I521
sS'3651'
p2522
I2
sS'649'
p2523
I16
sS'1248'
p2524
I514
sS'769'
p2525
I12
sS'3236'
p2526
I2
sS'3237'
p2527
I1
sS'3544'
p2528
I97
sS'3545'
p2529
I443
sS'3546'
p2530
I223
sS'3547'
p2531
I77
sS'3540'
p2532
I28
sS'3542'
p2533
I2
sS'3543'
p2534
I839
sS'3235'
p2535
I71
sS'3548'
p2536
I274
sS'3549'
p2537
I260
sS'1616'
p2538
I395
sS'422'
p2539
I57
sS'430'
p2540
I24
sS'1965'
p2541
I751
sS'1538'
p2542
I6
sS'1614'
p2543
I428
sS'3205'
p2544
I4
sS'1788'
p2545
I91
sS'2964'
p2546
I12
sS'2967'
p2547
I127
sS'1615'
p2548
I227
sS'2961'
p2549
I280
sS'2960'
p2550
I4
sS'2963'
p2551
I17
sS'2962'
p2552
I10
sS'762'
p2553
I298
sS'1612'
p2554
I55
sS'1782'
p2555
I8
sS'1783'
p2556
I220
sS'1784'
p2557
I1424
sS'2968'
p2558
I1010
sS'764'
p2559
I74
sS'765'
p2560
I171
sS'3049'
p2561
I37
sS'3048'
p2562
I71
sS'1610'
p2563
I1652
sS'3041'
p2564
I73
sS'3040'
p2565
I315
sS'3043'
p2566
I40
sS'1611'
p2567
I236
sS'3045'
p2568
I118
sS'3044'
p2569
I583
sS'3047'
p2570
I18
sS'3046'
p2571
I85
sS'3207'
p2572
I5
sS'1078'
p2573
I372
sS'1079'
p2574
I1326
sS'1076'
p2575
I23
sS'1077'
p2576
I744
sS'1073'
p2577
I1313
sS'1070'
p2578
I2
sS'1071'
p2579
I5
sS'1678'
p2580
I474
sS'1679'
p2581
I24
sS'1674'
p2582
I1046
sS'1675'
p2583
I11
sS'1676'
p2584
I1163
sS'1677'
p2585
I37
sS'1670'
p2586
I82
sS'1671'
p2587
I22
sS'1672'
p2588
I321
sS'1673'
p2589
I1128
sS'1094'
p2590
I1229
sS'1095'
p2591
I571
sS'1096'
p2592
I344
sS'1097'
p2593
I2269
sS'678'
p2594
I306
sS'1091'
p2595
I373
sS'1092'
p2596
I751
sS'1093'
p2597
I680
sS'674'
p2598
I386
sS'670'
p2599
I56
sS'671'
p2600
I456
sS'672'
p2601
I2
sS'673'
p2602
I563
sS'3135'
p2603
I195
sS'1623'
p2604
I128
sS'3137'
p2605
I16
sS'3136'
p2606
I3
sS'3131'
p2607
I2
sS'3130'
p2608
I118
sS'3133'
p2609
I42
sS'3132'
p2610
I38
sS'3139'
p2611
I17
sS'3138'
p2612
I66
sS'645'
p2613
I20
sS'1915'
p2614
I1
sS'2557'
p2615
I5
sS'1622'
p2616
I5
sS'1419'
p2617
I136
sS'1410'
p2618
I90
sS'1411'
p2619
I382
sS'1412'
p2620
I20
sS'1413'
p2621
I50
sS'1414'
p2622
I168
sS'1415'
p2623
I36
sS'1416'
p2624
I282
sS'1417'
p2625
I43
sS'1322'
p2626
I32
sS'1323'
p2627
I43
sS'1320'
p2628
I925
sS'1321'
p2629
I549
sS'1326'
p2630
I56
sS'1327'
p2631
I355
sS'1324'
p2632
I22
sS'1325'
p2633
I23
sS'1328'
p2634
I25
sS'1329'
p2635
I36
sS'656'
p2636
I39
sS'1531'
p2637
I11
sS'1256'
p2638
I594
sS'1257'
p2639
I472
sS'1254'
p2640
I453
sS'1527'
p2641
I1377
sS'1252'
p2642
I1185
sS'1253'
p2643
I559
sS'1250'
p2644
I938
sS'1251'
p2645
I228
sS'1528'
p2646
I2
sS'1529'
p2647
I31
sS'1258'
p2648
I1087
sS'1259'
p2649
I1785
sS'308'
p2650
I202
sS'309'
p2651
I48
sS'300'
p2652
I705
sS'3952'
p2653
I388
sS'302'
p2654
I86
sS'303'
p2655
I418
sS'304'
p2656
I35
sS'305'
p2657
I127
sS'306'
p2658
I334
sS'307'
p2659
I243
sS'2254'
p2660
I1
sS'75'
p2661
I12
sS'2979'
p2662
I37
sS'2399'
p2663
I223
sS'3058'
p2664
I12
sS'3352'
p2665
I3
sS'988'
p2666
I69
sS'2972'
p2667
I65
sS'989'
p2668
I1
sS'643'
p2669
I3
sS'2970'
p2670
I98
sS'3055'
p2671
I82
sS'2976'
p2672
I557
sS'1105'
p2673
I42
sS'2977'
p2674
I45
sS'2974'
p2675
I67
sS'3051'
p2676
I161
sS'3603'
p2677
I3
sS'3602'
p2678
I49
sS'3601'
p2679
I2
sS'3600'
p2680
I121
sS'3607'
p2681
I1
sS'3606'
p2682
I169
sS'3605'
p2683
I51
sS'3604'
p2684
I122
sS'3609'
p2685
I4
sS'3608'
p2686
I861
sS'3413'
p2687
I2
sS'2479'
p2688
I44
sS'985'
p2689
I4
sS'623'
p2690
I3
sS'2358'
p2691
I4
sS'2359'
p2692
I703
sS'2352'
p2693
I838
sS'2353'
p2694
I988
sS'2350'
p2695
I19
sS'2351'
p2696
I111
sS'2356'
p2697
I96
sS'2357'
p2698
I215
sS'2354'
p2699
I141
sS'2355'
p2700
I1703
sS'1898'
p2701
I14
sS'1899'
p2702
I10
sS'3739'
p2703
I40
sS'3738'
p2704
I77
sS'1894'
p2705
I471
sS'1895'
p2706
I306
sS'3735'
p2707
I495
sS'1897'
p2708
I133
sS'3733'
p2709
I289
sS'1891'
p2710
I9
sS'1892'
p2711
I401
sS'3730'
p2712
I453
sS'2136'
p2713
I222
sS'2137'
p2714
I497
sS'2134'
p2715
I510
sS'2135'
p2716
I238
sS'2132'
p2717
I297
sS'2133'
p2718
I541
sS'2130'
p2719
I304
sS'2131'
p2720
I30
sS'951'
p2721
I397
sS'950'
p2722
I292
sS'953'
p2723
I729
sS'952'
p2724
I269
sS'955'
p2725
I413
sS'954'
p2726
I383
sS'2138'
p2727
I305
sS'2139'
p2728
I369
sS'477'
p2729
I195
sS'2648'
p2730
I406
sS'2649'
p2731
I65
sS'2640'
p2732
I1222
sS'2641'
p2733
I846
sS'2642'
p2734
I511
sS'2643'
p2735
I332
sS'2644'
p2736
I238
sS'2645'
p2737
I102
sS'2646'
p2738
I39
sS'2647'
p2739
I52
sS'3429'
p2740
I274
sS'3428'
p2741
I59
sS'3423'
p2742
I74
sS'3422'
p2743
I210
sS'3421'
p2744
I1207
sS'3420'
p2745
I199
sS'3427'
p2746
I74
sS'3426'
p2747
I215
sS'3425'
p2748
I79
sS'3424'
p2749
I781
sS'2002'
p2750
I802
sS'2003'
p2751
I776
sS'2000'
p2752
I1627
sS'2001'
p2753
I1011
sS'2006'
p2754
I983
sS'2007'
p2755
I65
sS'2004'
p2756
I372
sS'2005'
p2757
I716
sS'3033'
p2758
I899
sS'2008'
p2759
I15
sS'2009'
p2760
I422
sS'3026'
p2761
I8
sS'1857'
p2762
I24
sS'3557'
p2763
I116
sS'3556'
p2764
I328
sS'3555'
p2765
I908
sS'3554'
p2766
I119
sS'3553'
p2767
I82
sS'3552'
p2768
I967
sS'3551'
p2769
I400
sS'3550'
p2770
I160
sS'3559'
p2771
I30
sS'667'
p2772
I47
sS'666'
p2773
I3
sS'919'
p2774
I1718
sS'504'
p2775
I178
sS'665'
p2776
I35
sS'2177'
p2777
I83
sS'2911'
p2778
I7
sS'2912'
p2779
I474
sS'2913'
p2780
I17
sS'2914'
p2781
I11
sS'2915'
p2782
I852
sS'2916'
p2783
I1996
sS'2917'
p2784
I504
sS'2918'
p2785
I1473
sS'1792'
p2786
I448
sS'715'
p2787
I52
sS'714'
p2788
I153
sS'1797'
p2789
I167
sS'1796'
p2790
I5
sS'711'
p2791
I62
sS'1794'
p2792
I151
sS'661'
p2793
I525
sS'716'
p2794
I28
sS'660'
p2795
I2
sS'655'
p2796
I1
sS'917'
p2797
I77
sS'1069'
p2798
I110
sS'1068'
p2799
I35
sS'2179'
p2800
I39
sS'1061'
p2801
I374
sS'1060'
p2802
I786
sS'1063'
p2803
I26
sS'1062'
p2804
I2
sS'1064'
p2805
I209
sS'1067'
p2806
I23
sS'1066'
p2807
I175
sS'1669'
p2808
I37
sS'1668'
p2809
I39
sS'1667'
p2810
I113
sS'1666'
p2811
I20
sS'1665'
p2812
I200
sS'1664'
p2813
I5
sS'1663'
p2814
I740
sS'1662'
p2815
I20
sS'1661'
p2816
I88
sS'1660'
p2817
I179
sS'1087'
p2818
I18
sS'590'
p2819
I1451
sS'593'
p2820
I2578
sS'1084'
p2821
I686
sS'595'
p2822
I1060
sS'594'
p2823
I763
sS'597'
p2824
I1046
sS'596'
p2825
I498
sS'599'
p2826
I264
sS'598'
p2827
I8
sS'2606'
p2828
I207
sS'1089'
p2829
I1259
sS'1088'
p2830
I687
sS'3140'
p2831
I9
sS'3141'
p2832
I62
sS'3142'
p2833
I130
sS'3143'
p2834
I33
sS'2828'
p2835
I121
sS'3145'
p2836
I259
sS'3146'
p2837
I308
sS'3147'
p2838
I1222
sS'3148'
p2839
I711
sS'3149'
p2840
I9
sS'2826'
p2841
I750
sS'2827'
p2842
I328
sS'2820'
p2843
I53
sS'2821'
p2844
I3
sS'2822'
p2845
I263
sS'2823'
p2846
I4
sS'3386'
p2847
I756
sS'3387'
p2848
I173
sS'3384'
p2849
I276
sS'3385'
p2850
I141
sS'3382'
p2851
I1
sS'3380'
p2852
I3
sS'3381'
p2853
I2
sS'3388'
p2854
I298
sS'3389'
p2855
I38
sS'1409'
p2856
I392
sS'1408'
p2857
I975
sS'1532'
p2858
I6
sS'1401'
p2859
I162
sS'1407'
p2860
I886
sS'1406'
p2861
I24
sS'1405'
p2862
I475
sS'1086'
p2863
I379
sS'692'
p2864
I106
sS'449'
p2865
I71
sS'448'
p2866
I228
sS'1339'
p2867
I672
sS'1335'
p2868
I21
sS'442'
p2869
I640
sS'441'
p2870
I643
sS'440'
p2871
I948
sS'1331'
p2872
I50
sS'446'
p2873
I254
sS'445'
p2874
I100
sS'444'
p2875
I81
sS'691'
p2876
I121
sS'696'
p2877
I4
sS'1631'
p2878
I49
sS'1543'
p2879
I7
sS'1933'
p2880
I21
sS'39'
p2881
I1362
sS'38'
p2882
I28
sS'1932'
p2883
I36
sS'33'
p2884
I4
sS'32'
p2885
I1511
sS'31'
p2886
I141
sS'30'
p2887
I74
sS'37'
p2888
I8
sS'36'
p2889
I928
sS'35'
p2890
I70
sS'34'
p2891
I1751
sS'1537'
p2892
I350
sS'1240'
p2893
I2098
sS'1535'
p2894
I103
sS'1242'
p2895
I1112
sS'1245'
p2896
I358
sS'1244'
p2897
I718
sS'1247'
p2898
I1261
sS'1246'
p2899
I855
sS'1249'
p2900
I733
sS'648'
p2901
I1527
sS'3098'
p2902
I548
sS'3099'
p2903
I273
sS'1539'
p2904
I11
sS'1936'
p2905
I82
sS'1493'
p2906
I17
sS'339'
p2907
I673
sS'1935'
p2908
I107
sS'335'
p2909
I41
sS'334'
p2910
I114
sS'337'
p2911
I693
sS'336'
p2912
I19
sS'331'
p2913
I21
sS'330'
p2914
I149
sS'333'
p2915
I410
sS'332'
p2916
I161
sS'2061'
p2917
I7
sS'3125'
p2918
I200
sS'2127'
p2919
I4
sS'1523'
p2920
I57
sS'1901'
p2921
I5
sS'3377'
p2922
I2
sS'3898'
p2923
I45
sS'3899'
p2924
I3
sS'3892'
p2925
I10
sS'3893'
p2926
I559
sS'3890'
p2927
I1
sS'3891'
p2928
I7
sS'3896'
p2929
I179
sS'3897'
p2930
I994
sS'3894'
p2931
I21
sS'3895'
p2932
I94
sS'847'
p2933
I7
sS'846'
p2934
I38
sS'844'
p2935
I7
sS'8'
I68
sS'843'
p2936
I1
sS'3462'
p2937
I305
sS'1353'
p2938
I188
sS'841'
p2939
I25
sS'3460'
p2940
I1
sS'1636'
p2941
I5
sS'2854'
p2942
I11
sS'3638'
p2943
I652
sS'3639'
p2944
I461
sS'3636'
p2945
I9
sS'3637'
p2946
I20
sS'3634'
p2947
I165
sS'3635'
p2948
I487
sS'3632'
p2949
I40
sS'3633'
p2950
I353
sS'3631'
p2951
I3
sS'3469'
p2952
I268
sS'137'
p2953
I13
sS'848'
p2954
I156
sS'152'
p2955
I69
sS'2345'
p2956
I43
sS'2344'
p2957
I201
sS'2347'
p2958
I95
sS'2346'
p2959
I300
sS'2341'
p2960
I44
sS'2340'
p2961
I344
sS'2343'
p2962
I2
sS'2342'
p2963
I11
sS'2349'
p2964
I167
sS'2348'
p2965
I304
sS'3708'
p2966
I267
sS'3709'
p2967
I113
sS'1889'
p2968
I49
sS'1888'
p2969
I387
sS'3702'
p2970
I1066
sS'3703'
p2971
I1034
sS'1885'
p2972
I608
sS'1884'
p2973
I298
sS'1883'
p2974
I664
sS'1882'
p2975
I499
sS'3704'
p2976
I722
sS'3705'
p2977
I380
sS'1595'
p2978
I65
sS'2120'
p2979
I242
sS'2123'
p2980
I215
sS'2122'
p2981
I233
sS'2125'
p2982
I416
sS'2124'
p2983
I714
sS'948'
p2984
I130
sS'2126'
p2985
I495
sS'946'
p2986
I161
sS'947'
p2987
I188
sS'944'
p2988
I97
sS'945'
p2989
I251
sS'942'
p2990
I292
sS'943'
p2991
I171
sS'940'
p2992
I378
sS'941'
p2993
I105
sS'2659'
p2994
I46
sS'2658'
p2995
I11
sS'642'
p2996
I1
sS'2653'
p2997
I42
sS'2652'
p2998
I51
sS'2651'
p2999
I82
sS'2650'
p3000
I33
sS'2657'
p3001
I1233
sS'2656'
p3002
I62
sS'2655'
p3003
I47
sS'2654'
p3004
I134
sS'3416'
p3005
I51
sS'3417'
p3006
I73
sS'3414'
p3007
I50
sS'3415'
p3008
I23
sS'3412'
p3009
I175
sS'136'
p3010
I8
sS'135'
p3011
I133
sS'134'
p3012
I2
sS'1931'
p3013
I225
sS'139'
p3014
I1
sS'138'
p3015
I2
sS'3418'
p3016
I1417
sS'3419'
p3017
I13
sS'410'
p3018
I463
sS'2019'
p3019
I628
sS'2018'
p3020
I589
sS'1930'
p3021
I5
sS'2015'
p3022
I380
sS'2014'
p3023
I180
sS'2017'
p3024
I162
sS'2016'
p3025
I109
sS'2011'
p3026
I1158
sS'2010'
p3027
I388
sS'2013'
p3028
I622
sS'2012'
p3029
I1148
sS'1937'
p3030
I63
sS'183'
p3031
I29
sS'3562'
p3032
I26
sS'3563'
p3033
I13
sS'3566'
p3034
I304
sS'3567'
p3035
I35
sS'3564'
p3036
I128
sS'3565'
p3037
I277
sS'3568'
p3038
I26
sS'2112'
p3039
I346
sS'2903'
p3040
I98
sS'2902'
p3041
I164
sS'2901'
p3042
I330
sS'2900'
p3043
I161
sS'2907'
p3044
I213
sS'2906'
p3045
I250
sS'2905'
p3046
I69
sS'2904'
p3047
I17
sS'704'
p3048
I42
sS'705'
p3049
I36
sS'706'
p3050
I2
sS'2908'
p3051
I850
sS'700'
p3052
I145
sS'701'
p3053
I1
sS'702'
p3054
I27
sS'703'
p3055
I10
sS'88'
p3056
I192
sS'89'
p3057
I229
sS'82'
p3058
I89
sS'83'
p3059
I33
sS'80'
p3060
I52
sS'81'
p3061
I166
sS'86'
p3062
I236
sS'87'
p3063
I76
sS'84'
p3064
I21
sS'85'
p3065
I194
sS'1934'
p3066
I77
sS'1658'
p3067
I116
sS'1659'
p3068
I7
sS'601'
p3069
I1
sS'1652'
p3070
I4
sS'1653'
p3071
I1077
sS'1650'
p3072
I50
sS'1651'
p3073
I17
sS'1656'
p3074
I14
sS'1657'
p3075
I20
sS'1654'
p3076
I87
sS'1655'
p3077
I77
sS'586'
p3078
I675
sS'587'
p3079
I1124
sS'584'
p3080
I1
sS'585'
p3081
I418
sS'582'
p3082
I2
sS'583'
p3083
I28
sS'580'
p3084
I62
sS'581'
p3085
I141
sS'1632'
p3086
I20
sS'588'
p3087
I1351
sS'589'
p3088
I2649
sS'3153'
p3089
I258
sS'3152'
p3090
I354
sS'3151'
p3091
I1
sS'1985'
p3092
I129
sS'3157'
p3093
I520
sS'3156'
p3094
I383
sS'3155'
p3095
I333
sS'3154'
p3096
I8
sS'2837'
p3097
I21
sS'2836'
p3098
I163
sS'3159'
p3099
I453
sS'3158'
p3100
I44
sS'2833'
p3101
I6
sS'2831'
p3102
I8
sS'1983'
p3103
I195
sS'3391'
p3104
I96
sS'3390'
p3105
I33
sS'3393'
p3106
I51
sS'3392'
p3107
I157
sS'1432'
p3108
I100
sS'3394'
p3109
I210
sS'3397'
p3110
I358
sS'3396'
p3111
I744
sS'3399'
p3112
I87
sS'3398'
p3113
I341
sS'1981'
p3114
I99
sS'1438'
p3115
I321
sS'419'
p3116
I156
sS'1260'
p3117
I308
sS'3031'
p3118
I53
sS'1348'
p3119
I238
sS'459'
p3120
I143
sS'1340'
p3121
I216
sS'451'
p3122
I106
sS'1342'
p3123
I262
sS'1343'
p3124
I687
sS'454'
p3125
I824
sS'1345'
p3126
I567
sS'1267'
p3127
I765
sS'1347'
p3128
I451
sS'1887'
p3129
I60
sS'1886'
p3130
I4
sS'564'
p3131
I45
sS'3700'
p3132
I246
sS'766'
p3133
I100
sS'2157'
p3134
I20
sS'3701'
p3135
I504
sS'3368'
p3136
I63
sS'3706'
p3137
I448
sS'3707'
p3138
I237
sS'1502'
p3139
I13
sS'1503'
p3140
I145
sS'1500'
p3141
I1136
sS'1501'
p3142
I18
sS'3089'
p3143
I252
sS'653'
p3144
I612
sS'650'
p3145
I89
sS'3941'
p3146
I22
sS'3085'
p3147
I2
sS'3084'
p3148
I2
sS'3087'
p3149
I516
sS'1509'
p3150
I21
sS'3081'
p3151
I1066
sS'311'
p3152
I1
sS'3083'
p3153
I394
sS'3082'
p3154
I862
sS'2121'
p3155
I245
sS'310'
p3156
I6
sS'3944'
p3157
I9
sS'3945'
p3158
I43
sS'3946'
p3159
I100
sS'3947'
p3160
I55
sS'3885'
p3161
I26
sS'3884'
p3162
I40
sS'3887'
p3163
I4
sS'3886'
p3164
I40
sS'3881'
p3165
I1
sS'3880'
p3166
I18
sS'3883'
p3167
I15
sS'3882'
p3168
I234
sS'55'
p3169
I45
sS'949'
p3170
I215
sS'3889'
p3171
I135
sS'3888'
p3172
I2
sS'2129'
p3173
I8
sS'2128'
p3174
I25
sS'568'
p3175
I35
sS'495'
p3176
I42
sS'54'
p3177
I41
sS'2816'
p3178
I148
sS'754'
p3179
I13
sS'322'
p3180
I209
sS'320'
p3181
I32
sS'321'
p3182
I61
sS'326'
p3183
I61
sS'327'
p3184
I358
sS'324'
p3185
I33
sS'325'
p3186
I49
sS'328'
p3187
I144
sS'329'
p3188
I990
sS'3629'
p3189
I275
sS'3628'
p3190
I101
sS'56'
p3191
I9
sS'3621'
p3192
I3
sS'3620'
p3193
I50
sS'3623'
p3194
I1313
sS'3622'
p3195
I84
sS'3625'
p3196
I16
sS'3624'
p3197
I791
sS'3627'
p3198
I107
sS'2818'
p3199
I58
sS'1881'
p3200
I68
sS'2330'
p3201
I92
sS'2331'
p3202
I179
sS'2332'
p3203
I8
sS'2333'
p3204
I578
sS'2334'
p3205
I386
sS'2335'
p3206
I420
sS'2336'
p3207
I938
sS'2337'
p3208
I126
sS'2338'
p3209
I295
sS'2339'
p3210
I27
sS'1341'
p3211
I53
sS'1597'
p3212
I811
sS'2537'
p3213
I34
sS'3073'
p3214
I33
sS'1880'
p3215
I26
sS'3074'
p3216
I222
sS'2535'
p3217
I119
sS'1590'
p3218
I498
sS'3715'
p3219
I88
sS'3714'
p3220
I66
sS'3717'
p3221
I584
sS'3716'
p3222
I67
sS'3711'
p3223
I33
sS'3076'
p3224
I93
sS'3713'
p3225
I85
sS'3712'
p3226
I365
sS'1592'
p3227
I112
sS'3719'
p3228
I45
sS'3718'
p3229
I61
sS'2711'
p3230
I32
sS'2955'
p3231
I4
sS'53'
p3232
I8
sS'2488'
p3233
I85
sS'2486'
p3234
I9
sS'1599'
p3235
I67
sS'2484'
p3236
I1
sS'2485'
p3237
I410
sS'2482'
p3238
I30
sS'2483'
p3239
I25
sS'2480'
p3240
I2
sS'1598'
p3241
I111
sS'2248'
p3242
I914
sS'2249'
p3243
I239
sS'2244'
p3244
I7
sS'2245'
p3245
I514
sS'2246'
p3246
I14
sS'2247'
p3247
I365
sS'2240'
p3248
I238
sS'2241'
p3249
I129
sS'2242'
p3250
I6
sS'2243'
p3251
I789
sS'2464'
p3252
I8
sS'994'
p3253
I450
sS'997'
p3254
I28
sS'2467'
p3255
I324
sS'2460'
p3256
I116
sS'2461'
p3257
I62
sS'2462'
p3258
I54
sS'2463'
p3259
I475
sS'999'
p3260
I286
sS'2469'
p3261
I506
sS'3401'
p3262
I113
sS'3400'
p3263
I29
sS'122'
p3264
I194
sS'123'
p3265
I115
sS'3405'
p3266
I144
sS'125'
p3267
I318
sS'126'
p3268
I99
sS'3406'
p3269
I105
sS'3409'
p3270
I459
sS'3408'
p3271
I1315
sS'133'
p3272
I1
sS'3379'
p3273
I95
sS'132'
p3274
I91
sS'2773'
p3275
I14
sS'3378'
p3276
I4
sS'131'
p3277
I16
sS'2068'
p3278
I128
sS'2069'
p3279
I140
sS'2798'
p3280
I160
sS'2799'
p3281
I99
sS'3376'
p3282
I1
sS'2792'
p3283
I558
sS'2793'
p3284
I265
sS'2790'
p3285
I61
sS'2791'
p3286
I1731
sS'2064'
p3287
I798
sS'2797'
p3288
I1491
sS'2794'
p3289
I385
sS'2795'
p3290
I549
sS'1346'
p3291
I174
sS'3374'
p3292
I15
sS'3410'
p3293
I9
sS'1849'
p3294
I7
sS'3372'
p3295
I56
sS'3371'
p3296
I48
sS'1181'
p3297
I10
sS'1134'
p3298
I2
sS'3579'
p3299
I68
sS'3578'
p3300
I1924
sS'3575'
p3301
I3
sS'3574'
p3302
I17
sS'3077'
p3303
I88
sS'3576'
p3304
I284
sS'3571'
p3305
I127
sS'3570'
p3306
I10
sS'3573'
p3307
I26
sS'3572'
p3308
I77
sS'2666'
p3309
I28
sS'2667'
p3310
I58
sS'2664'
p3311
I628
sS'2665'
p3312
I71
sS'2662'
p3313
I565
sS'2663'
p3314
I53
sS'2660'
p3315
I135
sS'2661'
p3316
I94
sS'722'
p3317
I27
sS'2668'
p3318
I273
sS'2669'
p3319
I107
sS'2938'
p3320
I31
sS'2939'
p3321
I52
sS'2936'
p3322
I161
sS'2937'
p3323
I104
sS'2934'
p3324
I5
sS'2935'
p3325
I145
sS'2932'
p3326
I118
sS'2933'
p3327
I9
sS'2930'
p3328
I5
sS'2931'
p3329
I10
sS'3799'
p3330
I100
sS'1837'
p3331
I64
sS'1645'
p3332
I826
sS'1644'
p3333
I475
sS'1647'
p3334
I90
sS'1646'
p3335
I88
sS'1641'
p3336
I1199
sS'1640'
p3337
I84
sS'1643'
p3338
I265
sS'1642'
p3339
I74
sS'1649'
p3340
I189
sS'1648'
p3341
I194
sS'1526'
p3342
I88
sS'729'
p3343
I3
sS'579'
p3344
I1
sS'1839'
p3345
I69
sS'573'
p3346
I21
sS'572'
p3347
I2
sS'571'
p3348
I34
sS'570'
p3349
I23
sS'577'
p3350
I55
sS'576'
p3351
I1
sS'575'
p3352
I107
sS'574'
p3353
I175
sS'2808'
p3354
I375
sS'2809'
p3355
I20
sS'3168'
p3356
I485
sS'3169'
p3357
I253
sS'2802'
p3358
I306
sS'3167'
p3359
I166
sS'2800'
p3360
I22
sS'2801'
p3361
I91
sS'2806'
p3362
I199
sS'3163'
p3363
I304
sS'3160'
p3364
I1113
sS'2805'
p3365
I448
sS'1421'
p3366
I22
sS'2406'
p3367
I1345
sS'1423'
p3368
I14
sS'1422'
p3369
I281
sS'1425'
p3370
I168
sS'1427'
p3371
I51
sS'2155'
p3372
I267
sS'1429'
p3373
I297
sS'1428'
p3374
I52
sS'3366'
p3375
I265
sS'602'
p3376
I41
sS'3360'
p3377
I590
sS'3361'
p3378
I1095
sS'3362'
p3379
I765
sS'3363'
p3380
I990
sS'731'
p3381
I47
sS'730'
p3382
I1
sS'733'
p3383
I1340
sS'2405'
p3384
I673
sS'735'
p3385
I101
sS'734'
p3386
I3
sS'737'
p3387
I300
sS'736'
p3388
I1110
sS'2402'
p3389
I401
sS'2151'
p3390
I128
sS'1359'
p3391
I222
sS'1358'
p3392
I1177
sS'469'
p3393
I69
sS'468'
p3394
I350
sS'465'
p3395
I105
sS'609'
p3396
I67
sS'467'
p3397
I54
sS'1350'
p3398
I409
sS'1357'
p3399
I548
sS'1356'
p3400
I1310
sS'463'
p3401
I47
sS'608'
p3402
I2513
sS'3224'
p3403
I77
sS'936'
p3404
I132
sS'1519'
p3405
I6
sS'1518'
p3406
I354
sS'1515'
p3407
I181
sS'1514'
p3408
I7
sS'1517'
p3409
I1205
sS'2409'
p3410
I445
sS'1511'
p3411
I24
sS'1510'
p3412
I2
sS'1513'
p3413
I755
sS'959'
p3414
I58
sS'958'
p3415
I13
sS'1798'
p3416
I42
sS'3184'
p3417
I5
sS'3185'
p3418
I398
sS'3186'
p3419
I431
sS'3214'
p3420
I97
sS'3180'
p3421
I70
sS'3181'
p3422
I163
sS'3182'
p3423
I124
sS'3183'
p3424
I45
sS'1996'
p3425
I112
sS'3188'
p3426
I54
sS'3189'
p3427
I300
sS'1138'
p3428
I7
sS'49'
p3429
I27
sS'357'
p3430
I1233
sS'356'
p3431
I2194
sS'355'
p3432
I267
sS'354'
p3433
I67
sS'353'
p3434
I734
sS'352'
p3435
I119
sS'351'
p3436
I257
sS'350'
p3437
I515
sS'359'
p3438
I19
sS'1032'
p3439
I525
sS'2299'
p3440
I4
sS'43'
p3441
I166
sS'2298'
p3442
I15
sS'2992'
p3443
I31
sS'2323'
p3444
I35
sS'2322'
p3445
I290
sS'2321'
p3446
I1158
sS'2320'
p3447
I187
sS'2327'
p3448
I100
sS'2326'
p3449
I12
sS'2325'
p3450
I119
sS'2324'
p3451
I1152
sS'2329'
p3452
I640
sS'2328'
p3453
I173
sS'1113'
p3454
I50
sS'484'
p3455
I29
sS'289'
p3456
I158
sS'288'
p3457
I700
sS'1299'
p3458
I732
sS'2292'
p3459
I20
sS'281'
p3460
I233
sS'280'
p3461
I212
sS'283'
p3462
I18
sS'282'
p3463
I215
sS'287'
p3464
I21
sS'1114'
p3465
I31
sS'3760'
p3466
I305
sS'3761'
p3467
I28
sS'3762'
p3468
I3
sS'3763'
p3469
I701
sS'3764'
p3470
I245
sS'3765'
p3471
I46
sS'3766'
p3472
I191
sS'3767'
p3473
I104
sS'3768'
p3474
I81
sS'3769'
p3475
I190
sS'1440'
p3476
I81
sS'263'
p3477
I28
sS'262'
p3478
I172
sS'261'
p3479
I285
sS'260'
p3480
I2991
sS'267'
p3481
I140
sS'266'
p3482
I705
sS'265'
p3483
I772
sS'1561'
p3484
I4
sS'286'
p3485
I1
sS'269'
p3486
I55
sS'268'
p3487
I54
sS'1290'
p3488
I230
sS'2499'
p3489
I52
sS'2498'
p3490
I123
sS'1563'
p3491
I40
sS'3225'
p3492
I122
sS'2491'
p3493
I115
sS'2490'
p3494
I773
sS'2493'
p3495
I28
sS'2492'
p3496
I139
sS'2495'
p3497
I98
sS'2494'
p3498
I27
sS'2497'
p3499
I170
sS'2496'
p3500
I360
sS'259'
p3501
I102
sS'1566'
p3502
I469
sS'2259'
p3503
I201
sS'2258'
p3504
I2
sS'2257'
p3505
I17
sS'2256'
p3506
I24
sS'2255'
p3507
I79
sS'1567'
p3508
I9
sS'2253'
p3509
I440
sS'2252'
p3510
I186
sS'2251'
p3511
I2
sS'2250'
p3512
I62
sS'2477'
p3513
I42
sS'2476'
p3514
I300
sS'2475'
p3515
I140
sS'2474'
p3516
I343
sS'2473'
p3517
I193
sS'2472'
p3518
I93
sS'2471'
p3519
I414
sS'2470'
p3520
I912
sS'982'
p3521
I81
sS'980'
p3522
I5
sS'981'
p3523
I4
sS'986'
p3524
I232
sS'987'
p3525
I40
sS'984'
p3526
I33
sS'2478'
p3527
I569
sS'114'
p3528
I11
sS'117'
p3529
I79
sS'116'
p3530
I41
sS'111'
p3531
I1240
sS'110'
p3532
I2443
sS'113'
p3533
I53
sS'112'
p3534
I570
sS'119'
p3535
I13
sS'118'
p3536
I68
sS'2785'
p3537
I25
sS'2784'
p3538
I63
sS'2787'
p3539
I162
sS'2786'
p3540
I72
sS'2781'
p3541
I63
sS'2780'
p3542
I82
sS'2783'
p3543
I10
sS'2782'
p3544
I107
sS'2789'
p3545
I165
sS'2788'
p3546
I451
sS'2079'
p3547
I14
sS'2078'
p3548
I664
sS'2073'
p3549
I66
sS'2072'
p3550
I303
sS'2071'
p3551
I171
sS'2070'
p3552
I264
sS'2077'
p3553
I154
sS'2076'
p3554
I654
sS'2075'
p3555
I81
sS'2074'
p3556
I21
sS'3221'
p3557
I29
sS'3508'
p3558
I365
sS'3509'
p3559
I92
sS'1026'
p3560
I8
sS'3500'
p3561
I177
sS'3501'
p3562
I269
sS'3502'
p3563
I88
sS'3503'
p3564
I143
sS'3504'
p3565
I688
sS'3505'
p3566
I355
sS'3506'
p3567
I167
sS'3507'
p3568
I389
sS'2671'
p3569
I780
sS'2670'
p3570
I220
sS'2060'
p3571
I183
sS'2672'
p3572
I391
sS'2675'
p3573
I10
sS'2674'
p3574
I26
sS'2677'
p3575
I230
sS'2676'
p3576
I266
sS'2679'
p3577
I5
sS'2678'
p3578
I25
sS'3220'
p3579
I1
sS'2929'
p3580
I215
sS'2928'
p3581
I77
sS'2562'
p3582
I9
sS'2921'
p3583
I317
sS'2920'
p3584
I100
sS'2923'
p3585
I17
sS'2922'
p3586
I241
sS'2925'
p3587
I57
sS'2924'
p3588
I133
sS'2927'
p3589
I99
sS'2926'
p3590
I445
sS'708'
p3591
I679
sS'709'
p3592
I144
sS'1986'
p3593
I127
sS'1987'
p3594
I91
sS'1984'
p3595
I105
sS'1633'
p3596
I266
sS'3210'
p3597
I886
sS'1635'
p3598
I507
sS'1980'
p3599
I91
sS'3213'
p3600
I232
sS'1639'
p3601
I966
sS'530'
p3602
I2
sS'3218'
p3603
I32
sS'3219'
p3604
I447
sS'1988'
p3605
I51
sS'1989'
p3606
I15
sS'3222'
p3607
I30
sS'2909'
p3608
I1
sS'2815'
p3609
I271
sS'569'
p3610
I100
sS'2817'
p3611
I125
sS'707'
p3612
I275
sS'2811'
p3613
I2
sS'2810'
p3614
I41
sS'2813'
p3615
I29
sS'2812'
p3616
I46
sS'560'
p3617
I8
sS'561'
p3618
I13
sS'562'
p3619
I478
sS'563'
p3620
I17
sS'2819'
p3621
I319
sS'565'
p3622
I61
sS'566'
p3623
I13
sS'567'
p3624
I14
sS'3179'
p3625
I225
sS'3178'
p3626
I509
sS'3171'
p3627
I25
sS'3173'
p3628
I483
sS'3172'
p3629
I1
sS'3175'
p3630
I1728
sS'3174'
p3631
I874
sS'3177'
p3632
I168
sS'3176'
p3633
I1331
sS'1188'
p3634
I676
sS'1189'
p3635
I269
sS'1186'
p3636
I562
sS'1187'
p3637
I147
sS'3375'
p3638
I65
sS'1185'
p3639
I453
sS'3373'
p3640
I3
sS'1183'
p3641
I989
sS'1180'
p3642
I50
sS'3370'
p3643
I86
sS'726'
p3644
I9
sS'724'
p3645
I416
sS'725'
p3646
I91
sS'1748'
p3647
I874
sS'3217'
p3648
I91
sS'720'
p3649
I438
sS'1744'
p3650
I77
sS'1746'
p3651
I55
sS'1747'
p3652
I907
sS'1741'
p3653
I5
sS'728'
p3654
I217
sS'1743'
p3655
I11
sS'1164'
p3656
I5
sS'1165'
p3657
I1
sS'1167'
p3658
I94
sS'1160'
p3659
I6
sS'3308'
p3660
I294
sS'1162'
p3661
I96
sS'1163'
p3662
I19
sS'1484'
p3663
I124
sS'1168'
p3664
I18
sS'1169'
p3665
I36
sS'3092'
p3666
I20
sS'3304'
p3667
I56
sS'3197'
p3668
I251
sS'3305'
p3669
I2
sS'48'
p3670
I382
sS'1367'
p3671
I364
sS'46'
p3672
I166
sS'47'
p3673
I1137
sS'44'
p3674
I311
sS'45'
p3675
I544
sS'42'
p3676
I221
sS'2034'
p3677
I295
sS'40'
p3678
I30
sS'41'
p3679
I242
sS'1569'
p3680
I820
sS'1298'
p3681
I387
sS'471'
p3682
I599
sS'1292'
p3683
I591
sS'1293'
p3684
I671
sS'1562'
p3685
I606
sS'1291'
p3686
I1628
sS'1296'
p3687
I560
sS'1297'
p3688
I442
sS'1294'
p3689
I1099
sS'1295'
p3690
I266
sS'1558'
p3691
I2
sS'1360'
p3692
I2
sS'796'
p3693
I3
sS'591'
p3694
I2
sS'3190'
p3695
I161
sS'2551'
p3696
I189
sS'793'
p3697
I10
sS'1366'
p3698
I108
sS'791'
p3699
I2
sS'2032'
p3700
I40
sS'790'
p3701
I1
sS'472'
p3702
I44
sS'473'
p3703
I151
sS'470'
p3704
I38
sS'3194'
p3705
I220
sS'476'
p3706
I35
sS'1363'
p3707
I112
sS'474'
p3708
I972
sS'475'
p3709
I312
sS'1865'
p3710
I54
sS'478'
p3711
I24
sS'479'
p3712
I133
sS'3199'
p3713
I72
sS'3198'
p3714
I325
ssS'_mapping'
p3715
(dp3716
g18
I3533
sg19
I2894
sg20
I2651
sg21
I3690
sg22
I2701
sg23
I658
sg24
I503
sg25
I1858
sg26
I3149
sg27
I973
sg28
I1966
sg29
I804
sg30
I3034
sg31
I362
sg32
I151
sg33
I335
sg34
I641
sg35
I3294
sg36
I493
sg37
I1910
sg38
I109
sg39
I1353
sg40
I2009
sg41
I969
sg42
I2225
sg43
I249
sg44
I245
sg45
I3230
sg46
I2264
sg47
I2832
sg48
I80
sg49
I983
sg50
I1974
sg51
I1078
sg52
I925
sg53
I3392
sg54
I1743
sg55
I1291
sg56
I2992
sg57
I2288
sg58
I3224
sg59
I1171
sg60
I2029
sg61
I3624
sg62
I3541
sg63
I3197
sg64
I2617
sg65
I359
sg66
I2380
sg67
I2608
sg68
I659
sg69
I1361
sg70
I661
sg71
I1362
sg72
I2114
sg73
I3431
sg74
I2413
sg75
I2508
sg76
I60
sg77
I1381
sg78
I2728
sg79
I1377
sg80
I1205
sg81
I2411
sg82
I1375
sg83
I1380
sg84
I2412
sg85
I1913
sg86
I1206
sg87
I478
sg88
I1791
sg89
I2709
sg90
I1577
sg91
I3016
sg92
I1417
sg93
I3572
sg94
I2174
sg95
I2168
sg96
I3326
sg97
I3378
sg98
I2365
sg99
I2879
sg100
I3189
sg101
I1927
sg102
I2418
sg103
I3116
sg104
I1738
sg105
I180
sg106
I482
sg107
I784
sg108
I785
sg109
I3143
sg110
I783
sg111
I1109
sg112
I782
sg113
I779
sg114
I780
sg115
I2290
sg116
I786
sg117
I1134
sg118
I2918
sg119
I2058
sg120
I3141
sg121
I1997
sg122
I2653
sg123
I1694
sg124
I2101
sg125
I268
sg126
I1614
sg127
I2061
sg128
I520
sg129
I3490
sg130
I934
sg131
I2280
sg132
I271
sg133
I502
sg134
I2723
sg135
I2887
sg136
I501
sg137
I17
sg138
I1714
sg139
I1627
sg140
I353
sg141
I3443
sg142
I2257
sg143
I3689
sg144
I2731
sg145
I2657
sg146
I2512
sg147
I1891
sg148
I1689
sg149
I131
sg150
I1435
sg151
I2494
sg152
I3103
sg153
I1218
sg154
I1373
sg155
I452
sg156
I1560
sg157
I1559
sg158
I1150
sg159
I906
sg160
I988
sg161
I2390
sg162
I2624
sg163
I2087
sg164
I182
sg165
I3380
sg166
I1139
sg167
I2361
sg168
I2693
sg169
I1147
sg170
I2238
sg171
I2532
sg172
I697
sg173
I2727
sg174
I2204
sg175
I2432
sg176
I1571
sg177
I496
sg178
I3237
sg179
I3565
sg180
I1288
sg181
I332
sg182
I1430
sg183
I917
sg184
I194
sg185
I2401
sg186
I2073
sg187
I1242
sg188
I128
sg189
I1520
sg190
I262
sg191
I1898
sg192
I1
sg193
I263
sg194
I2999
sg195
I774
sg196
I6
sg197
I125
sg198
I234
sg199
I3121
sg200
I555
sg201
I2326
sg202
I1173
sg203
I787
sg204
I1841
sg205
I2278
sg206
I1892
sg207
I1484
sg208
I221
sg209
I3376
sg210
I2001
sg211
I1652
sg212
I380
sg213
I3249
sg214
I946
sg215
I2232
sg216
I1391
sg217
I3073
sg218
I1864
sg219
I3522
sg220
I1345
sg221
I961
sg222
I7
sg223
I614
sg224
I1497
sg225
I1903
sg226
I611
sg227
I610
sg228
I107
sg229
I2504
sg230
I798
sg231
I3011
sg232
I2679
sg233
I3177
sg234
I1318
sg235
I2903
sg236
I433
sg237
I2710
sg238
I1793
sg239
I3167
sg240
I3025
sg241
I2697
sg242
I3331
sg243
I3364
sg244
I2900
sg245
I2433
sg246
I2548
sg247
I2298
sg248
I3621
sg249
I2774
sg250
I2258
sg251
I1238
sg252
I2544
sg253
I2493
sg254
I3124
sg255
I2425
sg256
I2973
sg257
I3305
sg258
I3688
sg259
I3203
sg260
I642
sg261
I118
sg262
I1058
sg263
I120
sg264
I645
sg265
I644
sg266
I648
sg267
I647
sg268
I198
sg269
I197
sg270
I3327
sg271
I2777
sg272
I2555
sg273
I2533
sg274
I1228
sg275
I1477
sg276
I1870
sg277
I2931
sg278
I1644
sg279
I3136
sg280
I2978
sg281
I1040
sg282
I3381
sg283
I2979
sg284
I2776
sg285
I1402
sg286
I2427
sg287
I1986
sg288
I1698
sg289
I152
sg290
I1770
sg291
I1716
sg292
I1396
sg293
I1784
sg294
I688
sg295
I2265
sg296
I1310
sg297
I3046
sg298
I1867
sg299
I265
sg300
I1869
sg301
I2234
sg302
I2399
sg303
I477
sg304
I2025
sg305
I2582
sg306
I2254
sg307
I3329
sg308
I3650
sg309
I3355
sg310
I3577
sg311
I3414
sg312
I3684
sg313
I3687
sg314
I1304
sg315
I618
sg316
I1543
sg317
I535
sg318
I2796
sg319
I3290
sg320
I2854
sg321
I802
sg322
I3546
sg323
I2602
sg324
I2491
sg325
I1987
sg326
I294
sg327
I854
sg328
I2048
sg329
I2063
sg330
I1281
sg331
I1282
sg332
I3403
sg333
I3289
sg334
I959
sg335
I796
sg336
I2400
sg337
I2172
sg338
I3060
sg339
I1945
sg340
I797
sg341
I608
sg342
I3145
sg343
I3502
sg344
I2756
sg345
I2735
sg346
I904
sg347
I903
sg348
I2260
sg349
I94
sg350
I3435
sg351
I3702
sg352
I3405
sg353
I1426
sg354
I2031
sg355
I1006
sg356
I1005
sg357
I2095
sg358
I1723
sg359
I2366
sg360
I1096
sg361
I748
sg362
I3251
sg363
I2597
sg364
I1657
sg365
I1946
sg366
I299
sg367
I1303
sg368
I2842
sg369
I1185
sg370
I1656
sg371
I2441
sg12
I0
sg373
I1102
sg374
I113
sg375
I1327
sg376
I1022
sg377
I3100
sg378
I559
sg379
I2013
sg380
I3182
sg381
I1328
sg382
I241
sg383
I2980
sg384
I1581
sg385
I2011
sg386
I2893
sg387
I1007
sg388
I1675
sg389
I3308
sg390
I2986
sg391
I1510
sg2105
I2442
sg392
I3362
sg393
I3523
sg394
I1043
sg395
I215
sg396
I400
sg397
I602
sg398
I3562
sg399
I3324
sg400
I2662
sg401
I1248
sg402
I2924
sg403
I472
sg404
I2102
sg405
I3488
sg406
I692
sg407
I2556
sg408
I1680
sg409
I3155
sg410
I513
sg411
I1772
sg412
I2488
sg413
I2487
sg414
I2852
sg415
I867
sg416
I673
sg417
I44
sg418
I3333
sg419
I1908
sg420
I1834
sg421
I2275
sg422
I2637
sg423
I3253
sg424
I1811
sg425
I3023
sg426
I3258
sg427
I3630
sg428
I1573
sg429
I169
sg430
I1809
sg431
I905
sg432
I1629
sg433
I247
sg434
I374
sg435
I674
sg436
I1071
sg437
I42
sg438
I43
sg439
I1664
sg440
I3087
sg441
I2230
sg442
I721
sg443
I205
sg444
I1516
sg445
I2328
sg446
I2285
sg447
I1408
sg448
I726
sg449
I2175
sg450
I2391
sg451
I1172
sg452
I861
sg453
I2325
sg454
I2971
sg455
I2039
sg456
I3573
sg457
I3267
sg458
I554
sg459
I553
sg460
I3032
sg461
I1940
sg462
I3407
sg463
I2628
sg464
I1842
sg465
I1608
sg466
I2596
sg467
I3537
sg468
I3517
sg469
I1874
sg470
I1674
sg471
I3349
sg472
I3518
sg473
I536
sg474
I3107
sg475
I416
sg476
I3557
sg477
I814
sg478
I2757
sg479
I87
sg480
I29
sg481
I2300
sg482
I1766
sg483
I1351
sg484
I1387
sg485
I3410
sg486
I3484
sg487
I3234
sg488
I745
sg489
I746
sg490
I1422
sg491
I744
sg492
I1095
sg493
I2785
sg494
I2436
sg495
I3266
sg496
I2065
sg497
I2503
sg498
I2515
sg499
I3297
sg500
I2537
sg501
I2780
sg502
I1646
sg503
I1471
sg504
I1920
sg505
I2984
sg506
I3539
sg507
I3199
sg508
I2844
sg509
I1967
sg510
I1359
sg511
I2223
sg512
I1268
sg513
I2410
sg514
I354
sg515
I1358
sg516
I3049
sg517
I158
sg518
I3527
sg519
I214
sg520
I427
sg521
I1364
sg522
I2944
sg523
I3082
sg524
I1000
sg525
I533
sg526
I2242
sg527
I2286
sg528
I2603
sg529
I2453
sg530
I1525
sg531
I2010
sg532
I3516
sg533
I3402
sg534
I3695
sg535
I2872
sg536
I2830
sg537
I3233
sg538
I3185
sg539
I84
sg540
I2769
sg541
I1818
sg542
I515
sg543
I391
sg544
I1975
sg545
I2201
sg546
I2577
sg547
I1862
sg548
I1385
sg549
I3276
sg550
I3642
sg551
I2343
sg552
I149
sg553
I1401
sg554
I1985
sg555
I398
sg556
I2466
sg557
I3273
sg558
I3262
sg559
I2434
sg560
I2771
sg561
I3368
sg562
I2937
sg563
I3384
sg564
I3501
sg565
I3223
sg566
I1721
sg567
I532
sg568
I407
sg569
I1158
sg570
I534
sg571
I2329
sg572
I3391
sg573
I2454
sg574
I2108
sg575
I3336
sg576
I1696
sg577
I679
sg578
I58
sg579
I1141
sg580
I2167
sg581
I3363
sg582
I1346
sg583
I483
sg584
I2934
sg585
I2376
sg586
I1190
sg587
I887
sg588
I2107
sg589
I2317
sg590
I3264
sg591
I3163
sg592
I1240
sg593
I2301
sg594
I2303
sg595
I1753
sg596
I1535
sg597
I3283
sg598
I1492
sg599
I3427
sg600
I269
sg601
I456
sg602
I3078
sg603
I1394
sg604
I1082
sg605
I1083
sg606
I689
sg607
I691
sg608
I2800
sg609
I1786
sg610
I123
sg611
I1600
sg612
I1942
sg613
I1037
sg614
I2198
sg615
I956
sg616
I147
sg617
I2138
sg618
I3270
sg619
I879
sg620
I462
sg621
I277
sg622
I145
sg623
I1423
sg624
I743
sg625
I1457
sg626
I408
sg627
I1579
sg628
I2730
sg629
I3519
sg630
I1420
sg631
I410
sg632
I1419
sg633
I3500
sg634
I2417
sg635
I2237
sg636
I3683
sg637
I2642
sg638
I1447
sg639
I2643
sg640
I1926
sg641
I3304
sg642
I1283
sg643
I2708
sg644
I2672
sg645
I309
sg646
I181
sg647
I2373
sg648
I1765
sg649
I2571
sg650
I864
sg651
I1619
sg652
I3080
sg653
I1761
sg654
I1050
sg655
I2962
sg656
I3019
sg657
I3701
sg658
I3608
sg659
I2811
sg660
I886
sg661
I179
sg662
I2352
sg663
I406
sg664
I2521
sg665
I148
sg666
I3619
sg667
I3312
sg668
I3571
sg669
I1935
sg670
I3086
sg671
I508
sg672
I2762
sg673
I2623
sg674
I3566
sg675
I3383
sg676
I2131
sg677
I3438
sg678
I1833
sg679
I1915
sg680
I896
sg681
I3664
sg682
I3464
sg683
I1817
sg684
I1816
sg685
I978
sg686
I1506
sg687
I1665
sg688
I1142
sg689
I1814
sg690
I1813
sg691
I1812
sg692
I1075
sg693
I3623
sg694
I2635
sg695
I2539
sg696
I1612
sg697
I582
sg698
I2183
sg699
I259
sg700
I3099
sg701
I2069
sg702
I519
sg703
I1336
sg704
I1479
sg705
I1780
sg706
I1732
sg707
I3134
sg708
I2817
sg709
I3704
sg710
I3252
sg711
I3052
sg712
I898
sg713
I899
sg714
I1641
sg715
I3534
sg716
I3493
sg717
I2782
sg718
I2240
sg719
I1160
sg720
I1930
sg721
I2350
sg722
I2019
sg723
I2681
sg724
I522
sg725
I2648
sg726
I3576
sg727
I3092
sg728
I1126
sg729
I955
sg730
I2516
sg731
I2866
sg732
I3360
sg733
I2766
sg734
I3303
sg735
I2912
sg736
I3081
sg737
I1582
sg738
I3323
sg739
I3114
sg740
I454
sg741
I2187
sg742
I2829
sg743
I3530
sg744
I126
sg745
I2698
sg746
I626
sg747
I1397
sg748
I621
sg749
I1114
sg750
I842
sg751
I624
sg752
I71
sg753
I260
sg754
I968
sg755
I185
sg756
I2892
sg757
I1113
sg758
I8
sg759
I1872
sg760
I1871
sg761
I1088
sg762
I50
sg763
I77
sg764
I2311
sg765
I2770
sg766
I730
sg767
I476
sg768
I1023
sg769
I3196
sg770
I2750
sg771
I2159
sg772
I3468
sg773
I2660
sg774
I3563
sg775
I261
sg776
I2157
sg777
I1815
sg778
I3592
sg779
I2214
sg780
I3675
sg781
I2492
sg782
I3210
sg783
I1204
sg784
I551
sg785
I2528
sg786
I2755
sg787
I1778
sg788
I847
sg789
I897
sg790
I1667
sg791
I178
sg792
I1308
sg793
I226
sg794
I1076
sg795
I1379
sg796
I711
sg797
I2514
sg798
I2784
sg799
I2047
sg800
I2049
sg801
I3106
sg802
I1790
sg803
I3589
sg804
I2490
sg805
I3265
sg806
I3098
sg807
I2323
sg808
I2283
sg809
I2422
sg810
I2689
sg811
I1556
sg812
I2348
sg813
I2335
sg814
I2700
sg815
I3296
sg816
I1451
sg817
I255
sg818
I2016
sg819
I2551
sg820
I3655
sg821
I1202
sg822
I369
sg823
I516
sg824
I1025
sg825
I3345
sg826
I3640
sg827
I2072
sg828
I2702
sg829
I2304
sg830
I3641
sg831
I3299
sg832
I3662
sg833
I3036
sg834
I3686
sg835
I3663
sg836
I3466
sg837
I449
sg838
I40
sg839
I576
sg840
I1904
sg841
I1610
sg842
I1533
sg843
I1316
sg844
I2220
sg845
I909
sg846
I1026
sg847
I704
sg848
I1701
sg849
I283
sg850
I708
sg851
I2089
sg852
I2155
sg853
I2129
sg854
I3067
sg855
I3285
sg856
I817
sg857
I399
sg858
I2136
sg859
I2671
sg860
I3105
sg861
I1151
sg862
I150
sg863
I1887
sg864
I3089
sg865
I1250
sg866
I290
sg867
I881
sg868
I288
sg869
I937
sg870
I287
sg871
I936
sg872
I2103
sg873
I163
sg874
I2420
sg875
I423
sg876
I922
sg877
I921
sg878
I381
sg879
I1526
sg880
I119
sg881
I838
sg882
I1653
sg883
I2066
sg884
I3117
sg885
I3421
sg886
I2825
sg887
I3697
sg888
I2213
sg889
I1226
sg890
I488
sg891
I638
sg892
I1625
sg893
I3056
sg894
I484
sg895
I1739
sg896
I485
sg897
I538
sg898
I747
sg899
I90
sg900
I91
sg901
I92
sg902
I1181
sg903
I2661
sg904
I2271
sg905
I2922
sg906
I831
sg907
I3354
sg908
I3550
sg909
I2578
sg910
I105
sg911
I3313
sg912
I1911
sg913
I3007
sg914
I1976
sg915
I3186
sg916
I3112
sg917
I101
sg918
I3005
sg919
I2388
sg920
I1863
sg921
I941
sg922
I3058
sg923
I2754
sg924
I1431
sg925
I1688
sg926
I3284
sg927
I2191
sg928
I2993
sg929
I122
sg930
I819
sg931
I1086
sg932
I2982
sg933
I1289
sg934
I1860
sg935
I2781
sg936
I467
sg937
I908
sg938
I1403
sg939
I281
sg940
I432
sg941
I2137
sg942
I438
sg943
I1503
sg944
I1370
sg945
I1969
sg946
I627
sg947
I2557
sg948
I2382
sg949
I2387
sg950
I703
sg951
I3195
sg952
I461
sg953
I3456
sg954
I2579
sg955
I143
sg956
I699
sg957
I1084
sg958
I278
sg959
I1020
sg960
I2625
sg961
I2333
sg962
I1496
sg963
I1592
sg964
I3144
sg965
I3246
sg966
I2014
sg967
I219
sg968
I1495
sg969
I1019
sg970
I297
sg971
I464
sg972
I2820
sg973
I3420
sg974
I24
sg975
I700
sg976
I1280
sg977
I1984
sg978
I2631
sg979
I1768
sg980
I654
sg981
I655
sg982
I1554
sg983
I1456
sg984
I526
sg985
I651
sg986
I1063
sg987
I771
sg988
I1518
sg989
I2605
sg990
I1458
sg991
I767
sg992
I1587
sg993
I2733
sg994
I547
sg995
I2270
sg996
I2252
sg997
I3180
sg998
I1973
sg999
I2115
sg1000
I73
sg1001
I684
sg1002
I1383
sg1003
I2847
sg1004
I2724
sg1005
I1274
sg1006
I139
sg1007
I2046
sg1008
I3187
sg1009
I2891
sg1010
I1719
sg1011
I2385
sg1012
I2525
sg1013
I3340
sg1014
I3274
sg1015
I1717
sg1016
I3504
sg1017
I3532
sg1018
I3370
sg1019
I3162
sg1020
I2836
sg1021
I3008
sg1022
I3263
sg1023
I3609
sg1024
I3634
sg1025
I3109
sg1026
I2496
sg1027
I3260
sg1028
I2877
sg1029
I1840
sg1030
I2197
sg1031
I1843
sg1032
I1338
sg1033
I142
sg1034
I1339
sg1035
I1340
sg1036
I460
sg1037
I794
sg1038
I1034
sg1039
I1655
sg1040
I1476
sg1041
I2261
sg1042
I3570
sg1043
I3208
sg1044
I3209
sg1045
I3629
sg1046
I3462
sS'1'
I41
sg1047
I3416
sg1048
I3389
sg1049
I2467
sg1050
I2196
sg1051
I2482
sg1052
I1460
sg1053
I1174
sg1054
I3535
sg1055
I1748
sg1056
I872
sg1057
I1798
sg1058
I1938
sg1059
I2332
sg1060
I3627
sg1061
I2580
sg1062
I3426
sg1063
I1618
sg1064
I1048
sg1065
I3172
sg1066
I402
sg1067
I1046
sg1068
I609
sg1069
I208
sg1070
I2540
sg1071
I613
sg1072
I2273
sg1073
I1047
sg1074
I1934
sg1075
I3335
sg1076
I826
sg1077
I2907
sg1078
I1838
sg1079
I1008
sg1080
I760
sg1081
I1837
sg1082
I3261
sg1083
I1588
sg1084
I1481
sg1085
I1836
sg1086
I455
sg1087
I932
sg1088
I791
sg1089
I1519
sg1090
I274
sg1091
I132
sg1092
I2281
sg1093
I3120
sg1094
I1031
sg1095
I878
sg1096
I2536
sg1097
I3597
sg1098
I2927
sg1099
I3595
sg1100
I2998
sg1101
I2497
sg1102
I2990
sg1103
I3679
sg1104
I1333
sg1105
I3610
sg1106
I565
sg1107
I37
sg1108
I873
sg1109
I96
sg1110
I1593
sg1111
I2446
sg1112
I2007
sg1113
I2008
sg1114
I2793
sg1115
I2321
sg1116
I3132
sg1117
I238
sg1118
I2404
sg1119
I1344
sg1120
I677
sg1121
I1074
sg1122
I12
sg1123
I1186
sg1124
I1372
sg1125
I1826
sg1126
I1045
sg1127
I1504
sg1128
I680
sg1129
I1562
sg1130
I1452
sg1131
I1779
sg1132
I302
sg1133
I1715
sg1134
I833
sg1135
I1769
sg1136
I3413
sg1137
I141
sg1138
I140
sg1139
I144
sg1140
I1065
sg1141
I2044
sg1142
I1964
sg1143
I137
sg1144
I1731
sg1145
I3050
sg1146
I426
sg1147
I1265
sg1148
I305
sg1149
I1416
sg1150
I1222
sg1151
I3607
sg1152
I2707
sg1153
I3059
sg1154
I732
sg1155
I480
sg1156
I2802
sg1157
I1517
sg1158
I2743
sg1159
I1828
sg1160
I3122
sg1161
I1617
sg1162
I3657
sg1163
I2249
sg1164
I3344
sg1165
I3665
sg1166
I3475
sg1167
I1921
sg1168
I2758
sg1169
I1673
sg1170
I907
sg1171
I3359
sg1172
I275
sg1173
I706
sg1174
I3282
sg1175
I1923
sg1176
I2189
sg1177
I459
sg1178
I2592
sg1179
I3494
sg1180
I994
sg1181
I523
sg1182
I1412
sg1183
I1466
sg1184
I475
sg1185
I1156
sg1186
I3337
sg1187
I303
sg1188
I1275
sg1189
I2915
sg1190
I307
sg1191
I2386
sg1192
I1039
sg1193
I1209
sg1194
I1208
sg1195
I1421
sg1196
I1386
sg1197
I2772
sg1198
I1781
sg1199
I1540
sg1200
I849
sg1201
I3636
sg1202
I2612
sg1203
I1782
sg1204
I3148
sg1205
I1094
sg1206
I2217
sg1207
I1213
sg1208
I207
sg1209
I728
sg1210
I1991
sg1211
I1278
sg1212
I3268
sg1213
I1502
sg1214
I2051
sg1215
I2914
sg1216
I2461
sg1217
I1537
sg1218
I1538
sg1219
I1494
sg1220
I1599
sg1221
I253
sg1222
I1728
sg1223
I279
sg1224
I1179
sg1225
I2406
sg1226
I1493
sg1227
I1979
sg1228
I1392
sg1229
I1247
sg1230
I637
sg1231
I2554
sg1232
I414
sg1233
I450
sg1234
I1057
sg1235
I116
sg1236
I1350
sg1237
I1865
sg1238
I851
sg1239
I1866
sg1240
I1287
sg1241
I1795
sg1242
I106
sg1243
I1468
sg1244
I540
sg1245
I1229
sg1246
I435
sg1247
I756
sg1248
I918
sg1249
I2012
sg1250
I913
sg1251
I820
sg1252
I2267
sg1253
I70
sg1254
I2991
sg1255
I3520
sg1256
I1794
sg1257
I3077
sg1258
I943
sg1259
I2848
sS'2'
I574
sg1260
I3220
sg1261
I953
sg1262
I1676
sg1263
I2302
sg1264
I1611
sg1265
I2322
sg1266
I1754
sg1267
I1755
sg1268
I3201
sg1269
I3524
sg1270
I1027
sg1271
I3605
sg1272
I1257
sg1273
I844
sg1274
I1684
sg1275
I2263
sg1276
I1851
sg1277
I491
sg1278
I418
sg1279
I329
sg1280
I1852
sg1281
I1959
sg1282
I1487
sg1283
I2567
sg1284
I2566
sg1285
I2337
sg1286
I3483
sg1287
I3481
sg1288
I2584
sg1289
I3181
sg1290
I2153
sg1291
I2823
sg1292
I2583
sg1293
I3388
sg1294
I1591
sg1295
I2064
sg1296
I2789
sg1297
I2084
sg1298
I3540
sg1299
I3558
sg1300
I2902
sg1301
I2565
sg1302
I2706
sg1303
I2678
sg1304
I1256
sg1305
I775
sg1306
I371
sg1307
I1804
sg1308
I2294
sg1309
I1443
sg1310
I2519
sg1311
I2616
sg1312
I777
sg1313
I2426
sg1314
I326
sg1315
I2752
sg1316
I2669
sg1317
I3556
sg1318
I2611
sg1319
I2408
sg1320
I1595
sg1321
I1622
sg1322
I1621
sg1323
I3222
sg1324
I3596
sg1325
I2344
sg1326
I3400
sg1327
I1829
sg1328
I3497
sg1329
I3401
sg1330
I3040
sg1331
I81
sg1332
I3409
sg1333
I2928
sg1334
I3295
sg1335
I1558
sg1336
I375
sg1337
I2888
sg1338
I2430
sg1339
I846
sg1340
I3091
sg1341
I3394
sg1342
I3511
sg1343
I3003
sg1344
I2381
sg1345
I2981
sg1346
I631
sg1347
I1729
sg1348
I633
sg1349
I834
sg1350
I625
sg1351
I629
sg1352
I2184
sg1353
I100
sg1354
I2045
sg1355
I3694
sg1356
I3440
sg1357
I2351
sg1358
I2100
sg1359
I3559
sg1360
I2856
sg1361
I2367
sg1362
I1704
sg1363
I1004
sg1364
I1003
sg1365
I3041
sg1366
I1722
sg1367
I1822
sg1368
I3178
sg1369
I749
sg1370
I857
sg1371
I3399
sg1372
I1315
sg1373
I1607
sg1374
I2901
sg1375
I2943
sg1376
I874
sg1377
I789
sg1378
I930
sg1379
I244
sg1380
I3703
sg1381
I446
sg1382
I3301
sg1383
I2694
sg1384
I2315
sg1385
I1654
sg1386
I3033
sg1387
I1746
sg1388
I3659
sg1389
I2502
sg1390
I3018
sg1391
I1276
sg1392
I1341
sg1393
I1212
sg1394
I1302
sg1395
I1038
sg1396
I1036
sg1397
I1035
sg1398
I592
sg1399
I154
sg1400
I1389
sg1401
I1450
sg1402
I662
sg1403
I663
sg1404
I3320
sg1405
I666
sg1406
I1246
sg1407
I3021
sg1408
I2588
sg1409
I1317
sg1410
I289
sg1411
I1440
sg1412
I291
sg1413
I1711
sg1414
I1163
sg1415
I549
sg1416
I603
sg1417
I2683
sg1418
I2309
sg1419
I888
sg1420
I1194
sg1421
I628
sg1422
I1849
sg1423
I1830
sg1424
I97
sg1425
I2988
sg1426
I1623
sg1427
I413
sg1428
I1056
sg1429
I1956
sg1430
I843
sS'3'
I1334
sg1431
I3288
sg1432
I3316
sg1433
I2996
sg1434
I2573
sg1435
I2459
sg1436
I3030
sg1437
I3214
sg1438
I2593
sg1439
I3678
sg1440
I3217
sg1441
I2092
sg1442
I2059
sg1443
I669
sg1444
I1136
sg1445
I1203
sg1446
I2563
sg1447
I161
sg1448
I2476
sg1449
I2083
sg1450
I36
sg1451
I1931
sg1452
I2094
sg1453
I3628
sg1454
I2759
sg1455
I809
sg1456
I3498
sg1457
I3150
sg1458
I28
sg1459
I2156
sg1460
I877
sg1461
I876
sg1462
I705
sg1463
I257
sg1464
I1405
sg1465
I1220
sg1466
I1720
sg1467
I2691
sg1468
I2601
sg1469
I2236
sg1470
I2751
sg1471
I2379
sg1472
I1427
sg1473
I489
sg1474
I2486
sg1475
I2192
sg1476
I751
sg1477
I190
sg1478
I2609
sg1479
I754
sg1480
I858
sg1481
I539
sg1482
I2905
sg1483
I1877
sg1484
I3386
sg1485
I3053
sg1486
I440
sg1487
I869
sg1488
I236
sg1489
I1077
sg1490
I389
sg1491
I681
sg1492
I211
sg1493
I1210
sg1494
I1207
sg1495
I15
sg1496
I1284
sg1497
I68
sg1498
I65
sg1499
I1801
sg1500
I856
sg1501
I72
sg1502
I210
sg1503
I741
sg1504
I2606
sg1505
I2622
sg1506
I1285
sg1507
I1159
sg1508
I2997
sg1509
I2203
sg1510
I2656
sg1511
I3615
sg1512
I2786
sg1513
I2932
sg1514
I325
sg1515
I2026
sg1516
I327
sg1517
I1101
sg1518
I3241
sg1519
I2505
sg1520
I3118
sg1521
I682
sg1522
I1365
sg1523
I1810
sg1524
I62
sg1525
I1382
sg1526
I387
sg1527
I3259
sg1528
I1832
sg1529
I2176
sg1530
I3238
sg1531
I2859
sg1532
I562
sg1533
I183
sg1534
I950
sg1535
I320
sg1536
I1880
sg1537
I2587
sg1538
I2792
sg1539
I3242
sg1540
I2445
sg1541
I1679
sg1542
I3200
sg1543
I2299
sg1544
I2313
sg1545
I2598
sg1546
I2942
sg1547
I2429
sg1548
I2951
sg1549
I2726
sg1550
I3174
sg1551
I1230
sg1552
I546
sg1553
I2330
sg1554
I2243
sg1555
I2341
sg1556
I3129
sg1557
I1106
sg1558
I2052
sg1559
I1995
sg1560
I1994
sg1561
I2687
sg1562
I2331
sg1563
I3318
sg1564
I82
sg1565
I788
sg1566
I1326
sg1567
I2630
sg1568
I233
sg1569
I3168
sg1570
I2518
sg1571
I2952
sg1572
I2481
sg1573
I1749
sg1574
I3467
sg1575
I3152
sg1576
I2507
sg1577
I1511
sg1578
I2088
sg1579
I3171
sg1580
I3085
sS'4'
I451
sg1581
I2985
sg1582
I3680
sg1583
I657
sg1584
I2974
sg1585
I3275
sg1586
I500
sg1587
I1661
sg1588
I1747
sg1589
I3372
sg1590
I3601
sg1591
I545
sg1592
I2949
sg1593
I3433
sg1594
I1635
sg1595
I3173
sg1596
I3287
sg1597
I900
sg1598
I3020
sg1599
I3460
sg1600
I1700
sg1601
I3434
sg1602
I3512
sg1603
I1505
sg1604
I1459
sg1605
I853
sg1606
I2748
sg1607
I947
sg1608
I948
sg1609
I928
sg1610
I3348
sg1611
I3192
sg1612
I1325
sg1613
I2195
sg1614
I2134
sg1615
I135
sg1616
I3278
sg1617
I924
sg1618
I351
sg1619
I944
sg1620
I763
sg1621
I346
sg1622
I923
sg1623
I2405
sg1624
I13
sg1625
I1167
sg1626
I3190
sg1627
I1384
sg1628
I3429
sg1629
I232
sg1630
I2216
sg1631
I1691
sg1632
I2821
sg1633
I1668
sg1634
I3367
sg1635
I3442
sg1636
I3612
sg1637
I3531
sg1638
I2145
sg1639
I3205
sg1640
I3677
sg1641
I2173
sg1642
I2485
sg1643
I2855
sg1644
I2736
sg1645
I3439
sg1646
I2834
sg1647
I3508
sg1648
I3212
sg1649
I2841
sg1650
I2469
sg1651
I2509
sg1652
I1049
sg1653
I3425
sg1654
I970
sg1655
I2166
sg1656
I1626
sg1657
I1262
sg1658
I650
sg1659
I643
sg1660
I3065
sg1661
I646
sg1662
I3
sg1663
I1553
sg1664
I649
sg1665
I1261
sg1666
I1196
sg1667
I339
sg1668
I421
sg1669
I920
sg1670
I1806
sg1671
I342
sg1672
I494
sg1673
I2804
sg1674
I3555
sg1675
I3437
sg1676
I2479
sg1677
I919
sg1678
I338
sg1679
I1432
sg1680
I2675
sg1681
I498
sg1682
I761
sg1683
I349
sg1684
I348
sg1685
I859
sg1686
I1170
sg1687
I2149
sg1688
I2106
sg1689
I2870
sg1690
I1620
sg1691
I617
sg1692
I2424
sg1693
I1948
sg1694
I3248
sg1695
I1135
sg1696
I885
sg1697
I3013
sg1698
I3346
sg1699
I1199
sg1700
I64
sg1701
I1446
sg1702
I1609
sg1703
I1824
sg1704
I2353
sg1705
I2947
sg1706
I2968
sg1707
I1105
sg1708
I2055
sg1709
I340
sg1710
I345
sg1711
I344
sg1712
I499
sg1713
I347
sg1714
I3593
sg1715
I2032
sg1716
I1760
sg1717
I2659
sg1718
I2923
sg1719
I612
sg1720
I3614
sg1721
I3332
sg1722
I2987
sg1723
I2215
sg1724
I2586
sg1725
I239
sg1726
I1726
sg1727
I3176
sg1728
I848
sg1729
I352
sg1730
I393
sg1731
I2308
sg1732
I1104
sg1733
I318
sg1734
I1437
sg1735
I1669
sg1736
I1917
sg1737
I250
sg1738
I1989
sg1739
I1418
sg1740
I209
sg1741
I314
sg1742
I1092
sg1743
I672
sg1744
I2224
sg1745
I512
sg1746
I2889
sg1747
I1368
sg1748
I668
sg1749
I671
sg1750
I38
sg1751
I2447
sg1752
I2200
sg1753
I3513
sg1754
I47
sg1755
I46
sg1756
I982
sg1757
I3696
sg1758
I901
sg1759
I235
sg1760
I1409
sg1761
I2130
sg1762
I3660
sg1763
I2392
sg1764
I2123
sg1765
I1467
sg1766
I2435
sg1767
I2207
sg1768
I1221
sg1769
I719
sg1770
I48
sg1771
I995
sg1772
I216
sg1773
I715
sg1774
I717
sg1775
I2581
sg1776
I1988
sg1777
I2208
sg1778
I2527
sg1779
I2826
sg1780
I76
sg1781
I2076
sg1782
I1252
sg1783
I19
sg1784
I3039
sg1785
I75
sg1786
I313
sg1787
I800
sg1788
I1472
sg1789
I2075
sg1790
I2513
sg1791
I541
sg1792
I2542
sg1793
I2253
sS'5'
I1335
sg1794
I115
sg1795
I419
sg1796
I1902
sg1797
I2654
sg1798
I3514
sg1799
I3063
sg1800
I343
sg1801
I1089
sg1802
I2124
sg1803
I300
sg1804
I1399
sg1805
I2559
sg1806
I2407
sg1807
I1797
sg1808
I2824
sg1809
I1433
sg1810
I1875
sg1811
I1103
sg1812
I2475
sg1813
I2775
sg1814
I1993
sg1815
I825
sg1816
I114
sg1817
I1839
sg1818
I2169
sg1819
I2015
sg1820
I2667
sg1821
I2027
sg1822
I1294
sg1823
I2397
sg1824
I1876
sg1825
I1016
sg1826
I2668
sg1827
I2342
sg1828
I781
sg1829
I2132
sg1830
I3232
sg1831
I2455
sg1832
I2933
sg1833
I2535
sg1834
I1651
sg1835
I2534
sg1836
I3341
sg1837
I2919
sg1838
I2585
sg1839
I2244
sg1840
I3031
sg1841
I3101
sg1842
I422
sg1843
I971
sg1844
I2024
sg1845
I1355
sg1846
I331
sg1847
I3417
sg1848
I1260
sg1849
I2843
sg1850
I1957
sg1851
I1958
sg1852
I3449
sg1853
I170
sg1854
I2523
sg1855
I2005
sg1856
I2676
sg1857
I3088
sg1858
I204
sg1859
I1319
sg1860
I1821
sg1861
I2677
sg1862
I722
sg1863
I3692
sg1864
I1012
sg1865
I509
sg1866
I1678
sg1867
I1709
sg1868
I3000
sg1869
I1491
sg1870
I1014
sg1871
I2645
sg1872
I2636
sg1873
I2419
sg1874
I1602
sg1875
I1604
sg1876
I1603
sg1877
I1643
sg1878
I324
sg1879
I914
sg1880
I3042
sg1881
I915
sg1882
I2082
sg1883
I2327
sg1884
I2599
sg1885
I2451
sg1886
I2816
sg1887
I1390
sg1888
I2558
sg1889
I2941
sg1890
I1568
sg1891
I892
sg1892
I39
sg1893
I940
sg1894
I1771
sg1895
I3093
sg1896
I810
sg1897
I3418
sg1898
I894
sg1899
I83
sg1900
I1254
sg1901
I1762
sg1902
I1461
sg1903
I1462
sg1904
I1545
sg1905
I630
sg1906
I1449
sg1907
I3699
sg1908
I1138
sg1909
I322
sg1910
I457
sg1911
I3254
sg1912
I1244
sg1913
I2808
sg1914
I2338
sg1915
I2274
sg1916
I1763
sg1917
I2688
sg1918
I1906
sg1919
I3213
sg1920
I189
sg1921
I537
sg1922
I623
sg1923
I1132
sg1924
I1192
sg1925
I1905
sg1926
I203
sg1927
I837
sg1928
I2020
sg1929
I2524
sg1930
I1011
sg1931
I1589
sg1932
I1649
sg1933
I2761
sg1934
I1550
sg1935
I3476
sg1936
I415
sg1937
I517
sg1938
I1848
sg1939
I3536
sg1940
I252
sg1941
I3102
sg1942
I35
sg1943
I571
sg1944
I102
sg1945
I2646
sg1946
I3193
sg1947
I2483
sg1948
I3128
sg1949
I527
sg1950
I2282
sg1951
I1182
sg1952
I159
sg1953
I2717
sg1954
I957
sg1955
I1366
sg1956
I3482
sg1957
I3568
sg1958
I2809
sg1959
I670
sg1960
I3528
sS'6'
I256
sg1961
I3436
sg1962
I1896
sg1963
I272
sg1964
I469
sg1965
I2403
sg1966
I599
sg1967
I3357
sg1968
I30
sg1969
I3113
sg1970
I2790
sg1971
I880
sg1972
I3588
sg1973
I1189
sg1974
I1374
sg1975
I1473
sg1976
I1632
sg1977
I1630
sg1978
I1914
sg1979
I678
sg1980
I1155
sg1981
I729
sg1982
I217
sg1983
I723
sg1984
I2152
sg1985
I55
sg1986
I166
sg1987
I1407
sg1988
I1576
sg1989
I2122
sg1990
I2118
sg1991
I1982
sg1992
I2465
sg1993
I1878
sg1994
I1322
sg1995
I3191
sg1996
I1312
sg1997
I2819
sg1998
I465
sg1999
I1894
sg2000
I3646
sg2001
I3277
sg2002
I2791
sg2003
I1164
sg2004
I3002
sg2005
I3235
sg2006
I448
sg2007
I99
sg2008
I1634
sg2009
I3072
sg2010
I1534
sg2011
I601
sg2012
I286
sg2013
I3424
sg2014
I2961
sg2015
I23
sg2016
I594
sg2017
I1001
sg2018
I1990
sg2019
I468
sg2020
I1042
sg2021
I598
sg2022
I470
sg2023
I2813
sg2024
I2849
sg2025
I3342
sg2026
I2995
sg2027
I2246
sg2028
I2560
sg2029
I3411
sg2030
I2135
sg2031
I51
sg2032
I328
sg2033
I2151
sg2034
I1552
sg2035
I1551
sg2036
I2462
sg2037
I2639
sg2038
I3617
sg2039
I2096
sg2040
I447
sg2041
I2086
sg2042
I1835
sg2043
I2640
sg2044
I3666
sg2045
I850
sg2046
I3671
sg2047
I200
sg2048
I1996
sg2049
I1292
sg2050
I548
sg2051
I1585
sg2052
I1009
sg2053
I766
sg2054
I835
sg2055
I2641
sg2056
I2139
sg2057
I2650
sg2058
I162
sg2059
I1442
sg2060
I1483
sg2061
I2737
sg2062
I1013
sg2063
I370
sg2064
I1690
sg2065
I1439
sg2066
I1802
sg2067
I1108
sg2068
I360
sg2069
I505
sg2070
I1066
sg2071
I2831
sg2072
I2428
sg2073
I146
sg2074
I1968
sg2075
I1884
sg2076
I1557
sg2077
I1523
sg2078
I365
sg2079
I2904
sg2080
I3548
sg2081
I1807
sg2082
I2340
sg2083
I1528
sg2084
I2402
sg2085
I1710
sg2086
I2319
sg2087
I2964
sg2088
I1111
sg2089
I2297
sg2090
I949
sg2091
I2053
sg2092
I3584
sg2093
I2561
sg2094
I2128
sg2095
I2394
sg2096
I2395
sg2097
I1660
sg2098
I3281
sg2099
I1586
sg2100
I3390
sg2101
I1438
sg2102
I2438
sg2103
I3225
sg2104
I3582
sS'7'
I577
sg372
I1844
sg2106
I991
sg2107
I276
sg2108
I2954
sg2109
I3561
sg2110
I1216
sg2111
I1215
sg2112
I2023
sg2113
I992
sg2114
I2345
sg2115
I3066
sg2116
I270
sg2117
I3325
sg2118
I2448
sg2119
I701
sg2120
I2876
sg2121
I990
sg2122
I3154
sg2123
I3322
sg2124
I2716
sg2125
I3447
sg2126
I3269
sg2127
I1125
sg2128
I1615
sg2129
I863
sg2130
I1032
sg2131
I2530
sg2132
I133
sg2133
I1429
sg2134
I736
sg2135
I1601
sg2136
I3137
sg2137
I1223
sg2138
I735
sg2139
I1157
sg2140
I998
sg2141
I855
sg2142
I731
sg2143
I2680
sg2144
I1090
sg2145
I698
sg2146
I2665
sg2147
I696
sg2148
I1398
sg2149
I1598
sg2150
I1149
sg2151
I3549
sg2152
I993
sg2153
I1572
sg2154
I2600
sg2155
I801
sg2156
I316
sg2157
I1059
sg2158
I3477
sg2159
I2835
sg2160
I588
sg2161
I3404
sg2162
I104
sg2163
I2955
sg2164
I2222
sg2165
I3009
sg2166
I1796
sg2167
I3485
sg2168
I2127
sg2169
I3505
sg2170
I1703
sg2171
I3643
sg2172
I2093
sg2173
I2148
sg2174
I1645
sg2175
I737
sg2176
I2711
sg2177
I757
sg2178
I2036
sg2179
I1296
sg2180
I1297
sg2181
I619
sg2182
I2199
sg2183
I622
sg2184
I1253
sg2185
I1953
sg2186
I1191
sg2187
I1745
sg2188
I778
sg2189
I1955
sg2190
I2398
sg2191
I2000
sg2192
I206
sg2193
I1017
sg2194
I1018
sg2195
I552
sg2196
I3648
sg2197
I3071
sg2198
I2568
sg2199
I2545
sg2200
I2953
sg2201
I2806
sg2202
I2170
sg2203
I61
sg2204
I929
sg2205
I2146
sg2206
I591
sg2207
I3043
sg2208
I3574
sg2209
I1324
sg2210
I1522
sg2211
I1936
sg2212
I273
sg2213
I3542
sg2214
I1756
sg2215
I134
sg2216
I458
sg2217
I2180
sg2218
I2682
sg2219
I3375
sg2220
I2747
sg2221
I793
sg2222
I431
sg2223
I228
sg2224
I590
sg2225
I3024
sg2226
I1337
sg2227
I1029
sg2228
I3015
sg2229
I230
sg2230
I2231
sg2231
I1100
sg2232
I2393
sg2233
I1693
sg2234
I1099
sg2235
I755
sg2236
I1963
sg2237
I490
sg2238
I2742
sg2239
I3057
sg2240
I49
sg2241
I330
sg2242
I3379
sg2243
I355
sg2244
I2989
sg2245
I3097
sg2246
I1718
sg2247
I3451
sg2248
I1890
sg2249
I2190
sg2250
I3543
sg2251
I3616
sg2252
I3221
sg2253
I2721
sg2254
I3051
sg2255
I3585
sg2256
I2266
sg2257
I2113
sg2258
I3554
sg2259
I2799
sg2260
I2787
sg2261
I1198
sg2262
I1685
sg2263
I543
sg2264
I2930
sg2265
I997
sg2266
I2289
sg2267
I1415
sg2268
I479
sg2269
I2226
sg2270
I2320
sg2271
I910
sg2272
I1363
sg2273
I1293
sg2274
I2185
sg2275
I2228
sg2276
I1201
sg2277
I1169
sg2278
I2125
sg2279
I945
sg2280
I396
sg2281
I687
sg2282
I1489
sg2283
I3272
sg2284
I1214
sg2285
I258
sg2286
I2738
sg2287
I192
sg2288
I2295
sg2289
I1527
sg2290
I229
sg2291
I439
sg2292
I3545
sg2293
I231
sg2294
I67
sg2295
I1937
sg2296
I1175
sg2297
I390
sg2298
I1971
sg2299
I3343
sg2300
I3651
sg2301
I586
sg2302
I266
sg2303
I2692
sg2304
I2474
sg2305
I862
sg2306
I840
sg2307
I193
sg2308
I2071
sg2309
I792
sg2310
I195
sg2311
I117
sg2312
I1613
sg2313
I933
sg2314
I2305
sg2315
I2569
sg2316
I3491
sg2317
I1941
sg2318
I2753
sg2319
I807
sg2320
I3159
sg2321
I2133
sg2322
I1200
sg2323
I1555
sg2324
I3373
sg2325
I2734
sg2326
I2163
sg2327
I2218
sg2328
I1165
sg2329
I2638
sg2330
I1561
sg2331
I227
sg2332
I812
sg2333
I2186
sg2334
I1378
sg2335
I656
sg2336
I2869
sg2337
I3653
sg2338
I3465
sg2339
I1295
sg2340
I3166
sg2341
I2028
sg2342
I550
sg2343
I3028
sg2344
I2798
sg2345
I3560
sg2346
I1853
sg2347
I1854
sg2348
I3044
sg2349
I3673
sg2350
I2171
sg2351
I3452
sg2352
I2460
sg2353
I1633
sg2354
I518
sg2355
I1486
sg2356
I958
sg2357
I168
sg2358
I2368
sg2359
I1044
sg2360
I1184
sg2361
I2360
sg2362
I1485
sg2363
I607
sg2364
I606
sg2365
I1343
sg2366
I2040
sg2367
I2241
sg2368
I3613
sg2369
I3211
sg2370
I3553
sg2371
I3279
sg2372
I3339
sg2373
I1306
sg2374
I3110
sg2375
I3206
sg2376
I2112
sg2377
I1120
sg2378
I972
sg2379
I3207
sg2380
I1886
sg2381
I3215
sg2382
I3139
sg2383
I2634
sg2384
I1785
sg2385
I2956
sg2386
I2966
sg2387
I1536
sg2388
I3676
sg2389
I3026
sg2390
I2154
sg2391
I3247
sg2392
I411
sg2393
I3219
sg2394
I1730
sg2395
I2109
sg2396
I1347
sg2397
I1847
sg2398
I1883
sg2399
I1888
sg2400
I1255
sg2401
I191
sg2402
I284
sg2403
I2090
sg2404
I473
sg2405
I1153
sg2406
I2614
sg2407
I31
sg2408
I3691
sg2409
I3638
sg2410
I2916
sg2411
I931
sg2412
I2449
sg2413
I251
sg2414
I3480
sg2415
I3412
sg2416
I1532
sg2417
I875
sg2418
I2279
sg2419
I942
sg2420
I2364
sg2421
I1152
sg2422
I213
sg2423
I2018
sg2424
I2017
sg2425
I1475
sg2426
I2983
sg2427
I2495
sg2428
I2517
sg2429
I2684
sg2430
I1239
sg2431
I2810
sg2432
I3538
sg2433
I2056
sg2434
I2262
sg2435
I882
sg2436
I292
sg2437
I3014
sg2438
I3226
sg2439
I2851
sg2440
I1949
sg2441
I2346
sg2442
I2885
sg2443
I2021
sg2444
I254
sg2445
I2117
sg2446
I2812
sg2447
I2649
sg2448
I2116
sg2449
I1637
sg2450
I1474
sg2451
I1566
sg2452
I2452
sg2453
I3142
sg2454
I3478
sg2455
I686
sg2456
I2878
sg2457
I1640
sg2458
I3581
sg2459
I3430
sg2460
I2091
sg2461
I1515
sg2462
I3423
sg2463
I713
sg2464
I2670
sg2465
I3461
sg2466
I295
sg2467
I720
sg2468
I772
sg2469
I770
sg2470
I1162
sg2471
I2287
sg2472
I3479
sg2473
I425
sg2474
I1744
sg2475
I828
sg2476
I768
sg2477
I2396
sg2478
I790
sg2479
I1118
sg2480
I2370
sg2481
I2369
sg2482
I1531
sg2483
I2972
sg2484
I3229
sg2485
I2714
sg2486
I1117
sg2487
I3473
sg2488
I1727
sg2489
I569
sg2490
I570
sg2491
I3654
sg2492
I1143
sg2493
I2099
sg2494
I2546
sg2495
I2547
sg2496
I2415
sg2497
I2549
sg2498
I378
sg2499
I1750
sg2500
I1939
sg2501
I1800
sg2502
I2206
sg2503
I2666
sg2504
I1639
sg2505
I769
sg2506
I2022
sg2507
I1501
sg2508
I636
sS'9'
I2144
sg2509
I1514
sg2510
I1855
sg2511
I3587
sg2512
I709
sg2513
I1737
sg2514
I2147
sg2515
I1925
sg2516
I57
sg2517
I296
sg2518
I1702
sg2519
I724
sg2520
I727
sg2521
I160
sg2522
I3004
sg2523
I2472
sg2524
I1232
sg2525
I3444
sg2526
I3649
sg2527
I3631
sg2528
I2921
sg2529
I2042
sg2530
I1547
sg2531
I2720
sg2532
I1764
sg2533
I3448
sg2534
I1349
sg2535
I2704
sg2536
I1463
sg2537
I1624
sg2538
I1671
sg2539
I3075
sg2540
I2846
sg2541
I1271
sg2542
I3131
sg2543
I984
sg2544
I3459
sg2545
I298
sg2546
I2913
sg2547
I758
sg2548
I186
sg2549
I916
sg2550
I3292
sg2551
I2773
sg2552
I2604
sg2553
I889
sg2554
I2591
sg2555
I1759
sg2556
I883
sg2557
I165
sg2558
I759
sg2559
I803
sg2560
I635
sg2561
I2002
sg2562
I2874
sg2563
I79
sg2564
I2739
sg2565
I1352
sg2566
I2873
sg2567
I1916
sg2568
I1767
sg2569
I1259
sg2570
I2699
sg2571
I334
sg2572
I3606
sg2573
I1642
sg2574
I184
sg2575
I2898
sg2576
I1002
sg2577
I742
sg2578
I3669
sg2579
I3369
sg2580
I511
sg2581
I3017
sg2582
I429
sg2583
I3446
sg2584
I776
sg2585
I1805
sg2586
I2498
sg2587
I3371
sg2588
I927
sg2589
I510
sg2590
I1107
sg2591
I367
sg2592
I153
sg2593
I27
sg2594
I1183
sg2595
I773
sg2596
I926
sg2597
I364
sg2598
I1249
sg2599
I2627
sg2600
I600
sg2601
I3408
sg2602
I1342
sg2603
I2526
sg2604
I1919
sg2605
I3227
sg2606
I3529
sg2607
I3463
sg2608
I1371
sg2609
I3029
sg2610
I2456
sg2611
I2945
sg2612
I2363
sg2613
I2470
sg2614
I3603
sg2615
I3415
sg2616
I3351
sg2617
I1616
sg2618
I2867
sg2619
I463
sg2620
I3170
sg2621
I2695
sg2622
I1758
sg2623
I2440
sg2624
I2142
sg2625
I1901
sg2626
I2355
sg2627
I2745
sg2628
I556
sg2629
I1112
sg2630
I2356
sg2631
I1115
sg2632
I3374
sg2633
I2347
sg2634
I2357
sg2635
I2358
sg2636
I2994
sg2637
I2865
sg2638
I563
sg2639
I564
sg2640
I561
sg2641
I156
sg2642
I560
sg2643
I78
sg2644
I237
sg2645
I1606
sg2646
I3547
sg2647
I368
sg2648
I1116
sg2649
I85
sg2650
I2570
sg2651
I1944
sg2652
I521
sg2653
I1245
sg2654
I1033
sg2655
I1301
sg2656
I3250
sg2657
I1757
sg2658
I2484
sg2659
I1943
sg2660
I3551
sg2661
I3076
sg2662
I2161
sg2663
I765
sg2664
I2970
sg2665
I3575
sg2666
I2760
sg2667
I1677
sg2668
I3578
sg2669
I3471
sg2670
I2732
sg2671
I2562
sg2672
I870
sg2673
I2818
sg2674
I2620
sg2675
I2658
sg2676
I361
sg2677
I3637
sg2678
I2104
sg2679
I3492
sg2680
I403
sg2681
I3705
sg2682
I2221
sg2683
I1947
sg2684
I404
sg2685
I3626
sg2686
I615
sg2687
I3652
sg2688
I2763
sg2689
I3445
sg2690
I3521
sg2691
I3454
sg2692
I130
sg2693
I1311
sg2694
I121
sg2695
I3347
sg2696
I2703
sg2697
I1787
sg2698
I2181
sg2699
I2188
sg2700
I5
sg2701
I3377
sg2702
I3198
sg2703
I3126
sg2704
I2119
sg2705
I1686
sg2706
I1596
sg2707
I136
sg2708
I379
sg2709
I1569
sg2710
I2815
sg2711
I895
sg2712
I1454
sg2713
I580
sg2714
I581
sg2715
I1177
sg2716
I579
sg2717
I1300
sg2718
I578
sg2719
I2067
sg2720
I3183
sg2721
I1279
sg2722
I1922
sg2723
I694
sg2724
I852
sg2725
I1455
sg2726
I695
sg2727
I583
sg2728
I1028
sg2729
I2268
sg2730
I1127
sg2731
I1128
sg2732
I587
sg2733
I841
sg2734
I1243
sg2735
I935
sg2736
I1122
sg2737
I2371
sg2738
I1123
sg2739
I1124
sg2740
I1521
sg2741
I3133
sg2742
I1321
sg2743
I1320
sg2744
I176
sg2745
I1234
sg2746
I2882
sg2747
I1323
sg2748
I437
sg2749
I1298
sg2750
I164
sg2751
I716
sg2752
I712
sg2753
I714
sg2754
I167
sg2755
I1885
sg2756
I1154
sg2757
I718
sg2758
I865
sg2759
I2929
sg2760
I725
sg2761
I3307
sg2762
I2884
sg2763
I1965
sg2764
I1264
sg2765
I1713
sg2766
I1488
sg2767
I1889
sg2768
I199
sg2769
I1263
sg2770
I1962
sg2771
I2722
sg2772
I2291
sg2773
I3486
sg2774
I10
sg2775
I2783
sg2776
I2473
sg2777
I2080
sg2778
I3157
sg2779
I980
sg2780
I2143
sg2781
I3291
sg2782
I1309
sg2783
I63
sg2784
I1273
sg2785
I14
sg2786
I66
sg2787
I2444
sg2788
I385
sg2789
I1846
sg2790
I2814
sg2791
I2210
sg2792
I315
sg2793
I2
sg2794
I3175
sg2795
I3525
sg2796
I3600
sg2797
I2863
sg2798
I996
sg2799
I2729
sg2800
I3127
sg2801
I1578
sg2802
I528
sg2803
I2443
sg2804
I2778
sg2805
I1087
sg2806
I3079
sg2807
I2050
sg2808
I544
sg2809
I3311
sg2810
I2538
sg2811
I1799
sg2812
I827
sg2813
I2906
sg2814
I1314
sg2815
I2464
sg2816
I2336
sg2817
I497
sg2818
I3202
sg2819
I124
sg2820
I129
sg2821
I112
sg2822
I11
sg2823
I9
sg2824
I397
sg2825
I589
sg2826
I1825
sg2827
I3395
sg2828
I1932
sg2829
I337
sg2830
I420
sg2831
I3239
sg2832
I2259
sg2833
I1670
sg2834
I3160
sg2835
I939
sg2836
I902
sg2837
I813
sg2838
I86
sg2839
I445
sg2840
I2860
sg2841
I652
sg2842
I1856
sg2843
I2111
sg2844
I3510
sg2845
I845
sg2846
I3432
sg2847
I293
sg2848
I1594
sg2849
I2251
sg2850
I2552
sg2851
I3698
sg2852
I3470
sg2853
I3622
sg2854
I605
sg2855
I2423
sg2856
I584
sg2857
I111
sg2858
I3580
sg2859
I2068
sg2860
I1119
sg2861
I3104
sg2862
I1178
sg2863
I1583
sg2864
I2165
sg2865
I1672
sg2866
I1980
sg2867
I585
sg2868
I2967
sg2869
I108
sg2870
I816
sg2871
I815
sg2872
I839
sg2873
I987
sg2874
I1393
sg2875
I2890
sg2876
I1682
sg2877
I3489
sg2878
I2705
sg2879
I2477
sg2880
I2686
sg2881
I222
sg2882
I1376
sg2883
I2510
sg2884
I3365
sg2885
I377
sg2886
I2744
sg2887
I977
sg2888
I3179
sg2889
I384
sg2890
I1774
sg2891
I382
sg2892
I56
sg2893
I218
sg2894
I225
sg2895
I1110
sg2896
I173
sg2897
I171
sg2898
I175
sg2899
I53
sg2900
I1233
sg2901
I59
sg2902
I1406
sg2903
I710
sg2904
I2590
sg2905
I2310
sg2906
I3300
sg2907
I640
sg2908
I2041
sg2909
I3074
sg2910
I1464
sg2911
I492
sg2912
I1850
sg2913
I3045
sg2914
I1133
sg2915
I639
sg2916
I2378
sg2917
I3293
sg2918
I2439
sg2919
I3450
sg2920
I2864
sg2921
I3321
sg2922
I3564
sg2923
I2212
sg2924
I3244
sg2925
I3158
sg2926
I174
sg2927
I3586
sg2928
I3243
sg2929
I1188
sg2930
I832
sg2931
I3048
sg2932
I2272
sg2933
I1808
sg2934
I1465
sg2935
I2936
sS'8'
I2164
sg2936
I3670
sg2937
I1498
sg2938
I1681
sg2939
I2969
sg2940
I3672
sg2941
I3352
sg2942
I3135
sg2943
I976
sg2944
I1072
sg2945
I3406
sg2946
I3111
sg2947
I1269
sg2948
I1070
sg2949
I3216
sg2950
I1069
sg2951
I3635
sg2952
I1448
sg2953
I2788
sg2954
I2081
sg2955
I2647
sg2956
I2875
sg2957
I1563
sg2958
I2250
sg2959
I985
sg2960
I2085
sg2961
I25
sg2962
I2414
sg2963
I3164
sg2964
I1918
sg2965
I1080
sg2966
I1270
sg2967
I2652
sg2968
I2450
sg2969
I1360
sg2970
I212
sg2971
I665
sg2972
I358
sg2973
I357
sg2974
I891
sg2975
I1064
sg2976
I667
sg2977
I1068
sg2978
I2277
sg2979
I1895
sg2980
I1021
sg2981
I1176
sg2982
I558
sg2983
I557
sg2984
I1638
sg2985
I74
sg2986
I1507
sg2987
I1453
sg2988
I2307
sg2989
I1636
sg2990
I986
sg2991
I685
sg2992
I1081
sg2993
I2239
sg2994
I2718
sg2995
I3218
sg2996
I3591
sg2997
I1130
sg2998
I2372
sg2999
I2840
sg3000
I1542
sg3001
I604
sg3002
I2663
sg3003
I2948
sg3004
I2468
sg3005
I2480
sg3006
I860
sg3007
I2038
sg3008
I2610
sg3009
I1707
sg3010
I3256
sg3011
I1444
sg3012
I3681
sg3013
I1845
sg3014
I3598
sg3015
I3667
sg3016
I157
sg3017
I3472
sg3018
I1857
sg3019
I1093
sg3020
I18
sg3021
I2685
sg3022
I740
sg3023
I1091
sg3024
I409
sg3025
I1873
sg3026
I738
sg3027
I999
sg3028
I312
sg3029
I739
sg3030
I1499
sg3031
I2719
sg3032
I2909
sg3033
I2917
sg3034
I893
sg3035
I1628
sg3036
I2062
sg3037
I430
sg3038
I2725
sg3039
I1999
sg3040
I2975
sg3041
I2950
sg3042
I975
sg3043
I2896
sg3044
I808
sg3045
I1367
sg3046
I2618
sg3047
I2312
sg3048
I2179
sg3049
I3119
sg3050
I3569
sg3051
I373
sg3052
I2205
sg3053
I3661
sg3054
I3356
sg3055
I3428
sg3056
I823
sg3057
I1879
sg3058
I2126
sg3059
I2633
sg3060
I2822
sg3061
I1225
sg3062
I1098
sg3063
I2202
sg3064
I2227
sg3065
I822
sg3066
I2105
sg3067
I1708
sg3068
I3090
sg3069
I3515
sg3070
I3506
sg3071
I323
sg3072
I321
sg3073
I3068
sg3074
I3165
sg3075
I1490
sg3076
I750
sg3077
I1161
sg3078
I567
sg3079
I568
sg3080
I3658
sg3081
I1166
sg3082
I3590
sg3083
I2247
sg3084
I1897
sg3085
I246
sg3086
I1788
sg3087
I34
sg3088
I98
sg3089
I690
sg3090
I1395
sg3091
I3385
sg3092
I1735
sg3093
I1692
sg3094
I989
sg3095
I453
sg3096
I2458
sg3097
I3123
sg3098
I1137
sg3099
I1524
sg3100
I2801
sg3101
I3604
sg3102
I3453
sg3103
I1733
sg3104
I2740
sg3105
I1882
sg3106
I1950
sg3107
I2511
sg3108
I2077
sg3109
I2553
sg3110
I1051
sg3111
I799
sg3112
I1053
sg3113
I1052
sg3114
I1820
sg3115
I1193
sg3116
I1859
sg3117
I2233
sg3118
I2795
sg3119
I1541
sg3120
I155
sg3121
I1129
sg3122
I2121
sg3123
I1900
sg3124
I524
sg3125
I466
sg3126
I595
sg3127
I1241
sg3128
I1180
sg3129
I805
sg3130
I3583
sg3131
I2621
sg3132
I974
sg3133
I1909
sg3134
I2248
sg3135
I664
sg3136
I3161
sg3137
I1663
sg3138
I1307
sg3139
I2589
sg3140
I2797
sg3141
I317
sg3142
I3188
sg3143
I2034
sg3144
I188
sg3145
I443
sg3146
I2359
sg3147
I3544
sg3148
I3685
sg3149
I693
sg3150
I319
sg3151
I264
sg3152
I3645
sg3153
I267
sg3154
I1146
sg3155
I2354
sg3156
I3319
sg3157
I3240
sg3158
I2853
sg3159
I2211
sg3160
I2858
sg3161
I2696
sg3162
I2500
sg3163
I3495
sg3164
I2779
sg3165
I3611
sg3166
I3310
sg3167
I2349
sg3168
I2057
sg3169
I1981
sg3170
I1565
sg3171
I1041
sg3172
I3474
sg3173
I2857
sg3174
I3138
sg3175
I2229
sg3176
I2827
sg3177
I1868
sg3178
I1697
sg3179
I2245
sg3180
I1951
sg3181
I2572
sg3182
I311
sg3183
I1952
sg3184
I1054
sg3185
I2375
sg3186
I2607
sg3187
I2377
sg3188
I620
sg3189
I653
sg3190
I1699
sg3191
I3169
sg3192
I3509
sg3193
I1961
sg3194
I542
sg3195
I2886
sg3196
I2575
sg3197
I350
sg3198
I2522
sg3199
I2296
sg3200
I2284
sg3201
I2629
sg3202
I1631
sg3203
I3330
sg3204
I220
sg3205
I1666
sg3206
I811
sg3207
I436
sg3208
I224
sg3209
I1140
sg3210
I1777
sg3211
I3108
sg3212
I138
sg3213
I1706
sg3214
I2457
sg3215
I1357
sg3216
I394
sg3217
I2318
sg3218
I1724
sg3219
I2741
sg3220
I2940
sg3221
I388
sg3222
I2910
sg3223
I2768
sg3224
I1783
sg3225
I979
sg3226
I1597
sg3227
I2194
sg3228
I2501
sg3229
I2576
sg3230
I2765
sg3231
I3599
sg3232
I3419
sg3233
I2713
sg3234
I3194
sg3235
I2292
sg3236
I3507
sg3237
I871
sg3238
I2595
sg3239
I2807
sg3240
I3682
sg3241
I2963
sg3242
I1062
sg3243
I1197
sg3244
I3328
sg3245
I1305
sg3246
I3358
sg3247
I1356
sg3248
I2541
sg3249
I1258
sg3250
I2409
sg3251
I866
sg3252
I3027
sg3253
I356
sg3254
I3070
sg3255
I1584
sg3256
I1740
sg3257
I1741
sg3258
I1742
sg3259
I1434
sg3260
I836
sg3261
I424
sg3262
I2674
sg3263
I2193
sg3264
I1436
sg3265
I1647
sg3266
I1480
sg3267
I1290
sg3268
I1933
sg3269
I1705
sg3270
I341
sg3271
I4
sg3272
I3674
sg3273
I2715
sg3274
I2098
sg3275
I3271
sg3276
I3257
sg3277
I2881
sg3278
I2626
sg3279
I2070
sg3280
I1400
sg3281
I2960
sg3282
I3644
sg3283
I1217
sg3284
I1983
sg3285
I1148
sg3286
I16
sg3287
I1121
sg3288
I20
sg3289
I1219
sg3290
I702
sg3291
I2837
sg3292
I3115
sg3293
I3153
sg3294
I3455
sg3295
I3012
sg3296
I2529
sg3297
I3457
sg3298
I2957
sg3299
I2499
sg3300
I69
sg3301
I3280
sg3302
I3366
sg3303
I2564
sg3304
I981
sg3305
I1972
sg3306
I3306
sg3307
I2976
sg3308
I2959
sg3309
I2664
sg3310
I966
sg3311
I965
sg3312
I2374
sg3313
I616
sg3314
I964
sg3315
I962
sg3316
I963
sg3317
I3047
sg3318
I967
sg3319
I1695
sg3320
I2316
sg3321
I2120
sg3322
I1513
sg3323
I2314
sg3324
I3350
sg3325
I1512
sg3326
I1570
sg3327
I3054
sg3328
I3594
sg3329
I3156
sg3330
I242
sg3331
I3146
sg3332
I912
sg3333
I911
sg3334
I2463
sg3335
I2828
sg3336
I177
sg3337
I1413
sg3338
I304
sg3339
I2850
sg3340
I310
sg3341
I1929
sg3342
I1831
sg3343
I3397
sg3344
I3496
sg3345
I2883
sg3346
I2749
sg3347
I3639
sg3348
I1893
sg3349
I2899
sg3350
I2182
sg3351
I3228
sg3352
I1823
sg3353
I2471
sg3354
I1251
sg3355
I2868
sg3356
I202
sg3357
I1575
sg3358
I405
sg3359
I1574
sg3360
I1168
sg3361
I2531
sg3362
I308
sg3363
I282
sg3364
I525
sg3365
I938
sg3366
I2030
sg3367
I386
sg3368
I2935
sg3369
I884
sg3370
I1187
sg3371
I2862
sg3372
I1658
sg3373
I301
sg3374
I960
sg3375
I1469
sg3376
I2632
sg3377
I1332
sg3378
I1299
sg3379
I830
sg3380
I566
sg3381
I3184
sg3382
I3398
sg3383
I196
sg3384
I676
sg3385
I1899
sg3386
I3298
sg3387
I1030
sg3388
I127
sg3389
I1073
sg3390
I2871
sg3391
I1827
sg3392
I530
sg3393
I1792
sg3394
I1313
sg3395
I474
sg3396
I1410
sg3397
I1414
sg3398
I1131
sg3399
I54
sg3400
I529
sg3401
I1411
sg3402
I52
sg3403
I2033
sg3404
I2306
sg3405
I3382
sg3406
I1712
sg3407
I2334
sg3408
I3314
sg3409
I336
sg3410
I1272
sg3411
I3064
sg3412
I3526
sg3413
I333
sg3414
I2035
sg3415
I2926
sg3416
I3061
sg3417
I3286
sg3418
I2037
sg3419
I32
sg3420
I2543
sg3421
I2838
sg3422
I2803
sg3423
I821
sg3424
I3069
sg3425
I2389
sg3426
I2712
sg3427
I752
sg3428
I3441
sg3429
I3084
sg3430
I383
sg3431
I172
sg3432
I1773
sg3433
I2845
sg3434
I376
sg3435
I2619
sg3436
I675
sg3437
I1369
sg3438
I3317
sg3439
I683
sg3440
I3552
sg3441
I2160
sg3442
I3096
sg3443
I2965
sg3444
I363
sg3445
I1266
sg3446
I21
sg3447
I504
sg3448
I2362
sg3449
I3140
sg3450
I806
sg3451
I506
sg3452
I507
sg3453
I1912
sg3454
I3147
sg3455
I3035
sg3456
I1776
sg3457
I223
sg3458
I1546
sg3459
I1789
sg3460
I1970
sg3461
I1861
sg3462
I3094
sg3463
I514
sg3464
I1775
sg3465
I2911
sg3466
I1580
sg3467
I2833
sg3468
I3632
sg3469
I1286
sg3470
I1992
sg3471
I2958
sg3472
I2437
sg3473
I2177
sg3474
I2178
sg3475
I1478
sg3476
I3151
sg3477
I2908
sg3478
I1061
sg3479
I1060
sg3480
I45
sg3481
I1354
sg3482
I417
sg3483
I110
sg3484
I3315
sg3485
I3700
sg3486
I495
sg3487
I1960
sg3488
I1907
sg3489
I2219
sg3490
I575
sg3491
I818
sg3492
I2276
sg3493
I1751
sg3494
I95
sg3495
I2764
sg3496
I1752
sg3497
I2520
sg3498
I2550
sg3499
I573
sg3500
I572
sg3501
I1954
sg3502
I33
sg3503
I1267
sg3504
I3647
sg3505
I3393
sg3506
I3037
sg3507
I2613
sg3508
I3255
sg3509
I1067
sg3510
I660
sg3511
I3309
sg3512
I1662
sg3513
I2946
sg3514
I2293
sg3515
I2746
sg3516
I1650
sg3517
I1441
sg3518
I2097
sg3519
I1605
sg3520
I201
sg3521
I103
sg3522
I3353
sg3523
I3618
sg3524
I824
sg3525
I2594
sg3526
I2673
sg3527
I1231
sg3528
I3204
sg3529
I2478
sg3530
I753
sg3531
I487
sg3532
I93
sg3533
I2054
sg3534
I1227
sg3535
I2880
sg3536
I1428
sg3537
I2861
sg3538
I2977
sg3539
I1978
sg3540
I2006
sg3541
I1977
sg3542
I1509
sg3543
I3579
sg3544
I1144
sg3545
I1145
sg3546
I2004
sg3547
I2074
sg3548
I597
sg3549
I2269
sg3550
I593
sg3551
I1539
sg3552
I280
sg3553
I596
sg3554
I795
sg3555
I2920
sg3556
I3130
sg3557
I2925
sg3558
I395
sg3559
I1881
sg3560
I3245
sg3561
I444
sg3562
I392
sg3563
I1330
sg3564
I952
sg3565
I1530
sg3566
I1235
sg3567
I1331
sg3568
I1237
sg3569
I1195
sg3570
I2043
sg3571
I2256
sg3572
I2140
sg3573
I3302
sg3574
I1549
sg3575
I1683
sg3576
I890
sg3577
I2767
sg3578
I2141
sg3579
I3503
sg3580
I2150
sg3581
I2431
sg3582
I3458
sg3583
I1564
sg3584
I868
sg3585
I3387
sg3586
I1508
sg3587
I2489
sg3588
I2235
sg3589
I2255
sg3590
I1567
sg3591
I829
sg3592
I2209
sg3593
I1736
sg3594
I2383
sg3595
I1734
sg3596
I707
sg3597
I1211
sg3598
I285
sg3599
I1819
sg3600
I441
sg3601
I471
sg3602
I3668
sg3603
I3338
sg3604
I1388
sg3605
I2384
sg3606
I3006
sg3607
I2938
sg3608
I3706
sg3609
I1659
sg3610
I428
sg3611
I1548
sg3612
I1010
sg3613
I3656
sg3614
I3083
sg3615
I3334
sg3616
I2574
sg3617
I3567
sg3618
I1998
sg3619
I366
sg3620
I3396
sg3621
I2110
sg3622
I1590
sg3623
I1803
sg3624
I3422
sg3625
I1928
sg3626
I531
sg3627
I2939
sg3628
I481
sg3629
I3633
sg3630
I734
sg3631
I733
sg3632
I2324
sg3633
I306
sg3634
I89
sg3635
I1236
sg3636
I1024
sg3637
I2162
sg3638
I954
sg3639
I951
sg3640
I3620
sg3641
I1529
sg3642
I1445
sg3643
I1470
sg3644
I3038
sg3645
I1329
sg3646
I2794
sg3647
I1015
sg3648
I2003
sg3649
I22
sg3650
I2644
sg3651
I2839
sg3652
I372
sg3653
I2805
sg3654
I248
sg3655
I3001
sg3656
I3022
sg3657
I3010
sg3658
I2339
sg3659
I3361
sg3660
I1404
sg3661
I1648
sg3662
I3055
sg3663
I2897
sg3664
I3236
sg3665
I2690
sg3666
I1924
sg3667
I2416
sg3668
I1482
sg3669
I3469
sg3670
I26
sg3671
I1055
sg3672
I1687
sg3673
I243
sg3674
I1079
sg3675
I1277
sg3676
I442
sg3677
I1725
sg3678
I2158
sg3679
I240
sg3680
I401
sg3681
I1348
sg3682
I1424
sg3683
I632
sg3684
I88
sg3685
I1085
sg3686
I187
sg3687
I412
sg3688
I1500
sg3689
I634
sg3690
I1544
sg3691
I3231
sg3692
I3487
sg3693
I3499
sg3694
I3693
sg3695
I2060
sg3696
I2421
sg3697
I2506
sg3698
I2079
sg3699
I3625
sg3700
I2895
sg3701
I3602
sg3702
I1425
sg3703
I1224
sg3704
I3062
sg3705
I762
sg3706
I486
sg3707
I2078
sg3708
I434
sg3709
I1097
sg3710
I3125
sg3711
I3095
sg3712
I2655
sg3713
I2615
sg3714
I764
ssS'_reverse_mapping'
p3717
(lp3718
g12
ag192
ag2793
ag1662
ag3271
ag2700
ag196
ag222
ag758
ag2823
ag2774
ag2822
ag1122
ag1624
ag2785
ag1495
ag3286
ag137
ag3020
ag1783
ag3288
ag3446
ag3649
ag2015
ag974
ag2961
ag3670
ag2593
ag1458
ag480
ag1968
ag2407
ag3419
ag3502
ag3087
ag1942
ag1450
ag1107
ag1750
ag1892
ag838
aS'1'
ag437
ag438
ag417
ag3480
ag1755
ag1754
ag1770
ag2240
ag762
ag2031
ag3402
ag2899
ag3399
ag1985
ag2892
ag2516
ag578
ag2901
ag76
ag2203
ag1524
ag2783
ag1700
ag1498
ag2786
ag2294
ag1497
ag3300
ag1253
ag752
ag1501
ag1000
ag2985
ag1785
ag1780
ag763
ag2643
ag2563
ag48
ag1331
ag1564
ag1899
ag539
ag2649
ag2838
ag479
ag3684
ag3634
ag899
ag900
ag901
ag3532
ag349
ag3494
ag1109
ag1424
ag3088
ag2007
ag1353
ag917
ag1944
ag3521
ag2162
ag910
ag1242
ag228
ag2869
ag38
ag3483
ag2857
ag2821
ag374
ag1816
ag1794
ag1235
ag2311
ag261
ag880
ag263
ag2694
ag929
ag610
ag2819
ag197
ag744
ag3388
ag188
ag2820
ag2692
ag149
ag1091
ag2132
ag2215
ag1615
ag2707
ag1143
ag3212
ag1006
ag1138
ag1137
ag1033
ag955
ag1139
ag622
ag2073
ag616
ag665
ag552
ag862
ag32
ag289
ag2592
ag1399
ag3120
ag2641
ag3016
ag517
ag1952
ag2521
ag1447
ag2058
ag873
ag2750
ag2557
ag1986
ag2754
ag2357
ag429
ag1853
ag2897
ag3431
ag2896
ag2926
ag2898
ag2744
ag3336
ag791
ag661
ag105
ag646
ag164
ag1533
ag2574
ag755
ag2548
ag3686
ag3144
ag1920
ag1477
ag2401
ag2287
ag2307
ag184
ag2310
ag3383
ag269
ag268
ag2768
ag2047
ag3520
ag3356
ag1926
ag1858
ag443
ag2192
ag1208
ag1069
ag1740
ag1502
ag1492
ag2970
ag2422
ag519
ag395
ag1772
ag1982
ag2893
ag967
ag3204
ag208
ag2881
ag3457
ag3208
ag2894
ag793
ag2331
ag2223
ag2290
ag2229
ag2293
ag1629
ag1568
ag198
ag1759
ag1488
ag2644
ag1117
ag1725
ag3679
ag382
ag3330
ag3673
ag1379
ag44
ag3085
ag433
ag3654
ag43
ag1737
ag2413
ag1940
ag1221
ag2444
ag817
aS'6'
ag1463
ag2285
ag699
ag753
ag775
ag190
ag193
ag3151
ag299
ag2302
ag3153
ag125
ag600
ag2116
ag132
ag1963
ag2212
ag1090
ag1172
ag2107
ag621
ag958
ag1223
ag3552
ag939
ag3363
ag849
ag2402
ag3598
ag2012
ag870
ag868
ag1410
ag866
ag1412
ag2436
ag2847
ag326
ag2466
ag2517
ag970
ag2545
ag366
ag1803
ag3373
ag1132
ag1187
ag3338
ag1148
ag3633
ag1190
ag3362
ag645
ag3340
ag3182
ag3028
ag1786
ag1741
ag2792
ag2156
ag3141
ag1733
ag3150
ag1535
ag3072
ag1909
ag3071
ag1878
ag1514
ag1314
ag1516
ag2032
ag1279
ag2241
ag1846
ag181
ag3413
ag2571
ag33
ag3409
ag2829
ag1678
ag1667
ag1709
ag3270
ag1671
ag1800
ag1711
ag1710
ag1621
ag1713
ag1684
ag1683
ag3197
ag1618
ag1729
ag140
ag514
ag2243
ag3253
ag2973
ag2972
ag65
ag2068
ag2676
ag31
ag3444
ag2597
ag2078
ag3619
ag2591
ag2647
ag822
ag2063
ag1306
ag3652
ag3051
ag434
ag1336
ag3434
ag2885
ag2498
ag2708
ag212
ag878
ag2891
ag3430
ag2889
ag2788
ag3367
ag1526
ag3221
ag1490
ag2297
ag543
ag3562
ag1730
ag3216
ag3558
ag2280
ag2824
ag555
ag857
ag396
ag3680
ag1066
ag2680
ag2684
ag3358
ag663
ag568
ag626
ag3024
ag631
ag2392
ag3687
ag1427
ag1232
ag1936
ag475
ag3482
ag1278
ag1795
ag2830
ag1668
ag1842
ag875
ag3261
ag2473
ag1146
ag520
ag3610
ag2582
ag3037
ag2222
ag940
ag236
ag3708
ag1246
ag3207
ag2748
ag942
ag2291
ag1486
ag3600
ag3676
ag3145
ag3561
ag2839
ag1381
ag2040
ag2006
ag837
ag1233
aS'4'
ag155
ag3095
ag740
ag1086
ag601
ag1910
ag2216
ag1177
ag1036
ag952
ag620
ag2619
ag971
ag1998
ag3125
ag936
ag2019
ag1964
ag2022
ag3601
ag403
ag2404
ag3395
ag1184
ag767
ag303
ag87
ag2268
ag1155
ag3628
ag106
ag583
ag894
ag896
ag3706
ag3531
ag890
ag1473
ag2237
ag1277
ag2911
ag36
ag1672
ag3486
ag177
ag2817
ag1681
ag1712
ag1586
ag136
ag133
ag24
ag3447
ag2069
ag3451
ag3452
ag671
ag1865
ag2589
ag2580
ag1745
ag410
ag3463
ag542
ag823
ag1937
ag2354
ag702
ag128
ag2652
ag724
ag1181
ag3124
ag3364
ag984
ag1949
ag2802
ag3400
ag3392
ag3626
ag567
ag525
ag570
ag317
ag473
ag1921
ag897
ag1481
ag1244
ag1791
ag3194
ag2263
ag2808
ag1591
ag1552
ag994
ag2050
ag1415
ag2342
ag784
ag2195
ag459
ag458
ag200
ag2628
ag2983
ag2982
ag378
ag2642
ag2640
ag1532
ag2638
ag2639
ag1106
ag3380
ag3078
ag3079
ag2489
ag2490
ag1943
ag3500
ag3499
aS'2'
ag3490
ag839
aS'7'
ag2718
ag2716
ag2713
ag2714
ag697
ag2727
ag2856
ag2867
ag2301
ag2732
ag2160
ag2825
ag2224
ag2206
ag1398
ag3550
ag2016
ag3126
ag3553
ag3548
ag2021
ag1966
ag2600
ag2011
ag397
ag1416
ag3001
ag2854
ag2364
ag2363
ag341
ag1068
ag227
ag226
ag1719
ag1071
ag223
ag2686
ag3313
ag1691
ag315
ag2181
ag3188
ag748
ag2183
ag1922
ag751
ag1350
ag746
ag946
ag1421
ag1351
ag1905
ag1346
ag3683
ag1348
ag3689
ag2560
ag2508
ag1230
ag891
ag2915
ag2907
ag34
ag260
ag1659
ag265
ag264
ag1661
ag267
ag266
ag1664
ag1658
ag985
ag2841
ag3189
ag980
ag981
ag2335
ag1583
ag23
ag68
ag3510
ag70
ag1402
ag1403
ag3135
ag2971
ag1405
ag2976
ag1748
ag1443
ag1959
ag1749
ag1743
ag416
ag435
ag3436
ag3384
ag1120
ag1979
ag577
ag1128
ag1491
ag1521
ag3439
ag1001
ag2991
ag2455
ag2281
ag294
ag606
ag3089
ag607
ag406
ag3149
ag2723
ag2726
ag2147
ag172
ag2145
ag956
ag975
ag2119
ag3290
ag950
ag847
ag1462
ag1173
ag3596
ag850
ag2512
ag2903
ag796
ag2752
ag2463
ag2753
ag1773
ag2751
ag1774
ag2757
ag1769
ag2467
ag442
ag1862
ag1983
ag2519
ag2760
ag448
ag2520
ag1209
ag1981
ag766
ag2142
ag1154
ag3631
ag3630
ag2138
ag2134
ag2175
ag3026
ag3029
ag3022
ag1503
ag2577
ag624
ag491
ag488
ag489
ag898
ag361
ag1369
ag3076
ag1476
ag3427
ag3530
ag1479
ag2235
ag1247
ag2177
ag2547
ag2558
ag1080
ag1682
ag3705
ag1620
ag3714
ag2663
ag2053
ag991
ag2476
ag2505
ag2469
ag987
ag2468
ag2595
ag195
ag1305
ag2584
ag1312
ag2188
ag113
ag114
ag1828
ag112
ag110
ag107
ag108
ag116
ag203
ag1565
ag1377
ag2478
ag1088
ag2309
ag2221
ag1037
ag3554
ag335
ag340
ag230
ag3111
ag1787
ag2155
ag321
ag2559
ag29
ag3129
ag3450
ag2319
ag3044
ag1455
ag1896
ag3206
ag2332
ag2837
ag477
ag2871
ag2870
ag856
ag3491
ag930
ag1251
ag3423
ag3065
ag3056
ag3524
ag1815
ag1076
ag2812
ag2475
ag3591
ag3379
ag906
ag2930
ag1134
ag1349
ag2054
ag3260
ag1927
ag881
ag2872
ag2306
ag2733
ag750
ag1430
ag1273
ag2845
ag1339
ag788
ag1728
ag1200
ag2045
ag1238
ag2724
ag1605
ag327
ag2141
ag1500
ag1370
ag1480
ag1685
ag3006
ag452
ag2305
ag2129
ag650
ag2758
ag3251
ag415
ag3584
ag1487
ag2672
ag3237
ag1056
ag1108
ag1376
ag2417
ag1461
ag1460
ag1095
ag619
ag1971
ag867
ag2435
ag2556
ag3369
ag1696
ag660
ag587
ag1419
ag2553
ag3576
ag2974
ag1891
ag3034
ag1898
ag2711
ag680
ag789
ag712
ag713
ag1597
ag1758
ag2836
ag347
ag346
ag431
ag159
ag1170
ag937
ag845
ag2271
ag3333
ag3332
ag1250
ag1879
ag1881
ag2549
ag183
ag1248
ag1677
ag1669
ag877
ag876
ag1622
ag1617
ag52
ag2596
ag2588
ag1609
ag2204
ag1378
ag2411
ag1087
ag2313
ag130
ag2735
ag871
ag869
ag3365
ag2835
ag1893
ag921
ag2419
ag1258
ag1619
ag2279
ag214
ag1607
ag1608
ag2090
ag1534
ag3639
ag3564
ag1261
ag3638
ag729
ag615
ag1954
ag2356
ag334
ag3374
ag221
ag3315
ag3316
ag3314
ag3311
ag3310
ag3318
ag754
ag41
ag1654
ag1843
ag2378
ag27
ag3132
ag3042
ag2943
ag2887
ag685
ag3225
ag2779
ag3304
ag1756
ag49
ag2543
ag2959
ag2990
ag2873
ag160
ag3094
ag2121
ag2106
ag2113
ag2152
ag1180
ag1771
ag2798
ag2265
ag2140
ag3027
ag524
ag2017
ag2576
ag1364
ag1363
ag356
ag355
ag387
ag1079
ag2052
ag3612
ag1930
ag1864
ag2062
ag1870
ag3647
ag1825
ag2193
ag2194
ag969
ag959
ag2980
ag376
ag768
ag3636
ag824
ag846
ag1270
ag2728
ag2227
ag3387
ag1094
ag2130
ag2654
ag1038
ag1397
ag1396
ag613
ag1395
ag1192
ag281
ag3171
ag2020
ag394
ag2359
ag1126
ag1067
ag1073
ag1064
ag1652
ag654
ag3110
ag3113
ag3112
ag3184
ag3671
ag1428
ag1234
ag262
ag2157
ag3479
ag3478
ag3242
ag986
ag2975
ag1140
ag2070
ag3509
ag2977
ag2950
ag2948
ag436
ag2944
ag3389
ag1121
ag692
ag794
ag1489
ag51
ag3674
ag2965
ag2992
ag604
ag605
ag957
ag3685
ag931
ag2805
ag761
ag1801
ag2144
ag3023
ag1742
ag3019
ag1205
ag492
ag360
ag3709
ag3062
ag2234
ag2231
ag1517
ag373
ag1811
ag1732
ag1707
ag1557
ag2590
ag2067
ag111
ag2895
ag2088
ag2629
ag757
ag749
ag2631
ag2648
ag2486
ag2479
ag2860
ag2377
ag3287
ag2736
ag2738
ag2739
ag2127
ag728
ag2730
ag2731
ag3121
ag2997
ag3398
ag1923
ag2914
ag117
ag1695
ag1444
ag3098
ag1908
ag166
ag3209
ag579
ag688
ag2492
ag3544
ag3545
ag3154
ag169
ag3285
ag2150
ag158
ag861
ag2421
ag2405
ag2756
ag1980
ag1185
ag2139
ag569
ag1507
ag719
ag3077
ag2470
ag1414
ag2003
ag2328
ag3081
ag1625
ag3360
ag2277
ag1686
ag59
ag451
ag202
ag1053
ag2296
ag2981
ag2715
ag2862
ag1224
ag3128
ag902
ag1951
ag2594
ag2360
ag369
ag1123
ag3370
ag2929
ag1973
ag586
ag2186
ag1924
ag3115
ag1420
ag3569
ag1666
ag3243
ag2261
ag1699
ag2322
ag2276
ag821
ag1445
ag783
ag80
ag86
ag1494
ag1194
ag1193
ag1493
ag3597
ag1393
ag1207
ag2284
ag2111
ag2110
ag3283
ag153
ag3289
ag1465
ag1768
ag1150
ag2137
ag3703
ag3061
ag889
ag3534
ag274
ag1245
ag1551
ag3527
ag2524
ag2900
ag2745
ag3566
ag3635
ag3568
ag251
ag2430
ag592
ag3127
ag187
ag2734
ag1912
ag2653
ag1406
ag1229
ag401
ag2598
ag865
ag3354
ag1782
ag2184
ag1900
ag2400
ag1304
ag1272
ag3249
ag2569
ag1848
ag1665
ag1657
ag2769
ag2764
ag1147
ag3445
ag3503
ag512
ag2947
ag2966
ag2541
ag3410
ag2784
ag1005
ag1188
ag1391
ag3675
ag1211
ag2721
ag976
ag330
ag331
ag642
ag1496
ag1506
ag3469
ag1240
ag180
ag933
ag3267
ag55
ag2049
ag2273
ag1822
ag2339
ag2179
ag2180
ag2749
ag3378
ag2717
ag2655
ag1394
ag367
ag314
ag3245
ag2373
ag3138
ag792
ag2782
ag296
ag2693
ag1996
ag3394
ag2814
ag1372
ag843
ag1409
ag234
ag1859
ag2743
ag2742
ag1994
ag2747
ag2209
ag1612
ag1566
ag375
ag381
ag3645
ag3563
ag3567
ag3377
ag1104
aS'3'
aS'5'
ag703
ag2226
ag1032
ag1034
ag1035
ag1392
ag2602
ag2365
ag1119
ag220
ag582
ag2396
ag3681
ag2534
ag1236
ag483
ag2565
ag39
ag3481
ag1845
ag3247
ag3215
ag515
ag510
ag2969
ag69
ag71
ag2272
ag521
ag1522
ag1955
ag3045
ag1747
ag3437
ag944
ag2608
ag1124
ag154
ag1974
ag82
ag2882
ag79
ag2334
ag795
ag83
ag77
ag1525
ag1002
ag1627
ag548
ag1196
ag484
ag3604
ag1400
ag1887
ag216
ag1228
ag2874
ag603
ag3090
ag292
ag747
ag2148
ag1804
ag3280
ag553
ag285
ag938
ag3660
ag1464
ag2902
ag1987
ag447
ag1760
ag3396
ag3401
ag1182
ag3337
ag3397
ag2267
ag1149
ag92
ag1739
ag632
ag630
ag1195
ag490
ag623
ag3682
ag3702
ag353
ag1472
ag3536
ag2133
ag182
ag924
ag1679
ag1809
ag3259
ag150
ag3264
ag1734
ag2101
ag2065
ag1411
ag3517
ag2059
ag1309
ag3011
ag3642
ag1701
ag638
ag2952
ag1906
ag1401
ag816
ag1130
ag2987
ag2712
ag2725
ag983
ag625
ag990
ag1604
ag1052
ag1902
ag1903
ag2536
ag2910
ag2934
ag1183
ag1765
ag1243
ag3375
ag3643
ag503
ag1788
ag1975
ag2450
ag2425
ag1040
ag275
ag3475
ag704
ag3266
ag1084
ag3668
ag2060
ag207
ag2362
ag2355
ag1282
ag2766
ag2282
ag3075
ag1869
ag598
ag1226
ag1219
ag968
ag962
ag224
ag2937
ag3030
ag3688
ag2507
ag1213
ag943
ag1127
ag1603
ag686
ag2986
ag3586
ag3542
ag391
ag1577
ag3325
ag3322
ag2509
ag2461
ag444
ag1157
ag988
ag1089
ag189
ag2740
ag2210
ag2077
ag3099
ag530
ag879
ag2289
ag2083
ag3641
ag3565
ag2482
ag2416
ag842
ag2010
ag596
ag2387
ag1217
ag1218
ag3551
ag1199
ag3119
ag3000
ag316
ag3690
ag1904
ag3458
ag2530
ag3611
ag3574
ag1934
ag2035
ag2034
ag1663
ag982
ag2323
ag811
ag2076
ag1335
ag157
ag156
ag2330
ag1129
ag2957
ag3583
ag3170
ag2451
ag3590
ag1890
ag2709
ag3326
ag176
ag2153
ag428
ag3359
ag3357
ag1988
ag90
ag2801
ag627
ag3466
ag384
ag737
ag2863
ag3255
ag2051
ag2099
ag992
ag1083
ag1931
ag3622
ag1294
ag963
ag1110
ag2848
ag1320
ag2706
ag3226
ag2149
ag1220
ag611
ag2135
ag1874
ag1876
ag1875
ag3519
ag2645
ag1373
ag465
ag1702
ag841
ag1264
ag696
ag2312
ag126
ag2128
ag2617
ag1161
ag1063
ag651
ag1690
ag1322
ag1321
ag1426
ag2537
ag892
ag1656
ag139
ag3035
ag432
ag1977
ag3202
ag1976
ag2353
ag2008
ag1594
ag2989
ag2449
ag2984
ag2504
ag2457
ag714
ag2573
ag1877
ag278
ag2174
ag502
ag3265
ag3661
ag1932
ag3516
ag1834
ag211
ag882
ag1385
ag1039
ag370
ag364
ag3372
ag3609
ag2097
ag1587
ag3512
ag3137
ag439
ag687
ag3205
ag790
ag1633
ag1735
ag2833
ag2538
ag2865
ag1169
ag470
ag388
ag1262
ag2667
ag1866
ag1541
ag408
ag2938
ag2876
ag3575
ag1274
ag2262
ag2705
ag3672
ag925
ag148
ag2064
ag1631
ag3093
ag2233
ag123
ag3319
ag576
ag3178
ag288
ag3190
ag1600
ag848
ag2518
ag2170
ag1362
ag3269
ag3213
ag3009
ag3067
ag1867
ag2085
ag1413
ag3406
ag2765
ag138
ag1133
ag291
ag1015
ag2246
ag1010
ag1466
ag566
ag1366
ag358
ag3218
ag3677
ag1726
ag2488
ag1222
ag1347
ag2394
ag1144
ag706
ag3103
ag3595
ag3092
ag3593
ag2513
ag104
ag895
ag3256
ag3257
ag3258
ag54
ag2474
ag2187
ag1387
ag1588
ag1055
ag1573
ag2499
ag3493
ag3496
ag595
ag1266
ag1267
ag2214
ag2657
ag2622
ag2555
ag1716
ag653
ag1901
ag1916
ag2532
ag648
ag482
ag2568
ag979
ag1135
ag290
ag1894
ag411
ag3432
ag2890
ag3464
ag3456
ag3210
ag787
ag1131
ag705
ag1198
ag1203
ag3224
ag293
ag2384
ag609
ag2697
ag3086
ag3459
ag802
ag88
ag3393
ag238
ag1256
ag1241
ag2166
ag1807
ag1057
ag2811
ag2501
ag1499
ag2066
ag3623
ag1307
ag2585
ag1670
ag2081
ag2933
ag430
ag1523
ag424
ag691
ag690
ag689
ag777
ag684
ag683
ag541
ag3599
ag3114
ag1860
ag1367
ag3352
ag1703
ag2826
ag1125
ag3391
ag1159
ag1327
ag1423
ag3342
ag1528
ag678
ag420
ag2042
ag1085
ag1081
ag1078
ag1817
ag1029
ag204
ag464
ag1031
ag372
ag3013
ag2789
ag2397
ag1938
ag1422
ag2912
ag1276
ag1280
ag2346
ag2347
ag2510
ag2842
ag3018
ag25
ag3116
ag934
ag3461
ag547
ag920
ag218
ag1237
ag1239
ag298
ag3177
ag300
ag276
ag760
ag759
ag3025
ag469
ag1810
ag1824
ag1483
ag1993
ag3057
ag1536
ag3559
ag3105
ag2398
ag2075
ag2755
ag2380
ag863
ag2399
ag2767
ag2248
ag147
ag206
ag3348
ag1999
ag2979
ag1962
ag3084
ag191
ag3385
ag3123
ag2625
ag1796
ag225
ag840
ag1925
ag1918
ag3488
ag419
ag3133
ag37
ag912
ag3453
ag85
ag1978
ag679
ag2567
ag1736
ag2964
ag2604
ag504
ag1167
ag2722
ag1175
ag3666
ag2515
ag640
ag101
ag3625
ag3341
ag720
ag1451
ag2828
ag3268
ag1074
ag669
ag2211
ag2295
ag1058
ag2500
ag461
ag2317
ag612
ag2659
ag2651
ag339
ag365
ag2683
ag1693
ag2440
ag3106
ag3180
ag3183
ag2185
ag3501
ag2189
ag1429
ag1850
ag1851
ag1281
ag3487
ag3193
ag2770
ag2236
ag1142
ag2763
ag28
ag509
ag2074
ag945
ag3460
ag2298
ag3305
ag998
ag50
ag544
ag914
ag3541
ag3539
ag1227
ag2866
ag3169
ag1991
ag3284
ag977
ag554
ag287
ag325
ag1776
ag1738
ag2018
ag1210
ag3470
ag1814
ag1560
ag1559
ag2048
ag121
ag3618
ag3039
ag2191
ag210
ag2561
ag3648
ag3546
ag1855
ag3540
ag1112
ag1113
ag40
ag531
ag385
ag1249
ag379
ag966
ag1819
ag818
ag2424
ag2423
ag722
ag1928
ag2443
ag2506
ag2112
ag1844
ag304
ag1515
ag1821
ag2341
ag60
ag3366
ag354
ag1715
ag3403
ag3143
ag3414
ag2178
ag3418
ag3007
ag455
ag2366
ag2908
ag2529
ag3570
ag1141
ag1354
ag1007
ag799
ag328
ag800
ag2807
ag1214
ag1558
ag2091
ag3533
ag1708
ag2433
ag3168
ag119
ag1442
ag3695
ag127
ag3036
ag329
ag1295
ag496
ag883
ag2719
ag2859
ag701
ag3279
ag2308
ag827
ag186
ag3547
ag1789
ag1781
ag3108
ag3707
ag3698
ag2777
ag2954
ag1882
ag1449
ag1297
ag2960
ag2041
ag163
ag1578
ag851
ag2403
ag2460
ag1441
ag2172
ag1452
ag357
ag2039
ag3518
ag3274
ag2493
ag1358
ag124
ag404
ag872
ag2678
ag3066
ag1688
ag588
ag574
ag2395
ag3621
ag2843
ag2376
ag2257
ag72
ag999
ag2448
ag2445
ag1990
ag2704
ag3321
ag3122
ag1989
ag1764
ag1802
ag2278
ag3058
ag2168
ag2094
ag853
ag1761
ag676
ag1829
ag2321
ag1614
ag2030
ag858
ag941
ag617
ag2056
ag3572
ag3578
ag2624
ag2780
aS'9'
ag1638
ag2205
ag2514
ag2173
ag1687
ag3580
ag2033
ag1984
ag1290
ag2390
ag852
ag1459
ag776
ag3678
ag771
ag3441
ag2662
ag3637
ag2326
aS'8'
ag2864
ag1655
ag580
ag95
ag1818
ag2202
ag2350
ag337
ag1641
ag94
ag449
ag1529
ag3473
ag3474
ag3048
ag2217
ag2698
ag3350
ag698
ag1352
ag2274
ag2333
ag741
ag2699
ag1176
ag2249
ag927
ag1475
ag3263
ag3227
ag1613
ag1050
ag1030
ag614
ag2182
ag1752
ag545
ag3063
ag1509
ag174
ag3052
ag2502
ag1767
ag1777
ag3592
ag2791
ag3159
ag2923
ag888
ag779
ag1723
ag1630
ag1206
ag2327
ag3489
ag844
ag2682
ag2164
ag511
ag1744
ag42
ag2269
ag3064
ag2275
ag3175
ag441
ag2230
ag215
ag3117
ag301
ag3588
ag1469
ag635
ag170
ag2993
ag718
ag2367
ag526
ag1554
ag1839
ag3179
ag2027
ag3083
ag3134
ag1163
ag2958
ag2849
ag996
ag1793
ag306
ag3589
ag3571
ag142
ag250
ag2832
ag348
ag1041
ag2434
ag1275
ag46
ag295
ag2256
ag1252
ag2729
ag3549
ag995
ag904
ag2932
ag1072
ag1915
ag421
ag3492
ag2978
ag205
ag2418
ag131
ag1092
ag1950
ag808
ag3200
ag446
ag527
ag2471
ag57
ag2266
ag115
ag2772
ag3235
ag3514
ag1308
ag2288
ag3199
ag2089
ag247
ag1543
ag481
ag593
ag1263
ag594
ag829
ag2314
ag3404
ag2988
ag1731
ag1418
ag2905
ag764
ag3047
ag1544
ag3323
ag1384
ag3320
ag589
ag3217
ag2086
ag2270
ag1115
ag1265
ag807
ag3632
ag453
ag201
ag1883
ag445
ag571
ag1553
ag1562
ag1059
ag961
ag3407
ag813
ag2816
ag1285
ag1914
ag3658
ag2082
ag1555
ag1827
ag551
ag1325
ag2114
ag2441
ag2633
ag812
ag3167
ag721
ag1357
ag662
ag1704
ag3155
ag2626
ag2630
ag2634
ag2635
ag3146
ag2361
ag167
ag3448
ag2612
ag2420
ag98
ag359
ag1361
ag2358
ag2481
ag2480
ag2737
ag2998
ag647
ag3312
ag3185
ag585
ag3187
ag2916
ag1471
ag66
ag1344
ag948
ag3594
ag3605
ag1011
ag1191
ag949
ag919
ag3425
ag161
ag450
ag1763
ag2232
ag2095
ag2096
ag2477
ag1823
ag2190
ag302
ag336
ag185
ag2084
ag1965
ag1118
ag1623
ag1225
ag1806
ag1319
ag3250
ag513
ag81
ag84
ag74
ag2962
ag2496
ag3667
ag634
ag102
ag1873
ag874
ag3696
ag809
ag2855
ag1692
ag255
ag1313
ag286
ag2072
ag1547
ag1338
ag3581
ag175
ag245
ag559
ag1766
ag494
ag3472
ag2102
ag2918
ag2623
ag371
ag2105
ag2803
ag2787
ag1540
ag1111
ag1751
ag2118
ag2412
ag2968
ag1885
ag2452
ag529
ag573
ag1831
ag2610
ag3214
ag3096
ag1435
ag2352
ag1216
ag2036
ag3334
ag2815
ag1992
ag556
ag1049
ag3004
ag1650
ag2613
ag3353
ag2523
ag2776
ag2304
ag1812
ag1448
ag2879
ag3529
ag1676
ag3005
ag1572
ag1051
ag1947
ag2658
ag1642
ag1474
ag413
ag412
ag3587
ag804
ag324
ag781
ag253
ag151
ag2427
ag1026
ag1101
ag2586
ag3299
ag3162
ag3228
ag1389
ag497
ag229
ag1519
ag3697
ag1576
ag75
ag1651
ag2883
ag3107
ag146
ag1790
ag797
ag498
ag730
ag2428
ag1570
ag1310
ag3497
ag664
ag3198
ag1854
ag1929
ag1012
ag2603
ag1778
ag785
ag3296
ag2131
ag3361
ag171
ag273
ag1835
ag1833
ag1096
ag500
ag2810
ag695
ag1070
ag3248
ag1792
ag3420
ag252
ag2199
ag2494
ag2495
ag246
ag2497
ag3498
ag819
ag2850
ag3109
ag1231
ag272
ag407
ag947
ag1888
ag1805
ag2028
ag2093
ag2671
ag1446
ag3303
ag1301
ag1284
ag1283
ag2198
ag2315
ag2650
ag649
ag3181
ag1434
ag3616
ag3196
ag3229
ag546
ag909
ag954
ag1061
ag1775
ag305
ag1292
ag1288
ag1838
ag1724
ag1537
ag1408
ag3139
ag2904
ag2554
ag1178
ag1438
ag3525
ag3238
ag466
ag363
ag1545
ag1884
ag2154
ag1468
ag323
ag528
ag2552
ag989
ag1504
ag3186
ag67
ag1478
ag3008
ag1318
ag1202
ag3507
ag2406
ag3713
ag1311
ag64
ag3046
ag3435
ag2674
ag3131
ag1505
ag673
ag162
ag960
ag3278
ag2599
ag463
ag3201
ag1567
ag978
ag3376
ag3059
ag2383
ag694
ag1872
ag422
ag2329
ag2037
ag2043
ag2055
ag637
ag639
ag3650
ag1871
ag1945
ag2955
ag725
ag2447
ag2057
ag20
ag2967
ag122
ag1797
ag3712
ag1510
ag145
ag2675
ag1717
ag773
ag903
ag400
ag3002
ag3309
ag2146
ag2503
ag1820
ag1826
ag1316
ag2464
ag859
ag644
ag3526
ag3262
ag1680
ag1856
ag1861
ag1303
ag232
ag2143
ag723
ag2218
ag1417
ag2429
ag3021
ag2880
ag1561
ag1917
ag810
ag3665
ag1467
ag2303
ag168
ag1383
ag2621
ag3161
ag241
ag745
ag2570
ag814
ag22
ag828
ag2696
ag2535
ag2878
ag1302
ag1152
ag643
ag89
ag237
ag2176
ag3426
ag3233
ag2485
ag3273
ag2124
ag1953
ag2994
ag3031
ag2531
ag2253
ag2771
ag134
ag1004
ag3038
ag1549
ag173
ag78
ag2799
ag628
ag144
ag2670
ag993
ag2325
ag345
ag1644
ag2061
ag2286
ag2564
ag3104
ag3219
ag2238
ag1158
ag2886
ag2627
ag3515
ag2220
ag1606
ag3346
ag770
ag1470
ag1315
ag2318
ag923
ag786
ag344
ag478
ag1168
ag1454
ag2666
ag1933
ag672
ag2688
ag3495
ag3230
ag733
ag3577
ag3223
ag540
ag765
ag560
ag1197
ag2551
ag249
ag1813
ag284
ag271
ag2804
ag3164
ag501
ag935
ag717
ag2775
ag798
ag493
ag1512
ag2260
ag2953
ag1296
ag1970
ag2002
ag1538
ag1114
ag3646
ag3118
ag318
ag3140
ag2344
ag2259
ag608
ag3100
ag1156
ag3422
ag1673
ag3653
ag2201
ag3239
ag1913
ag1958
ag2431
ag659
ag2446
ag2023
ag2790
ag2710
ag1886
ag708
ag2673
ag1997
ag972
ag1632
ag3060
ag1291
ag1808
ag886
ag1779
ag3176
ag3335
ag742
ag536
ag2071
ag47
ag3467
ag1646
ag2159
ag1020
ag3291
ag3421
ag3651
ag2999
ag1649
ag368
ag1849
ag508
ag3433
ag2540
ag1003
ag1259
ag2024
ag3339
ag2439
ag414
ag3158
ag320
ag1643
ag1360
ag3173
ag3160
ag1531
ag2840
ag3537
ag3371
ag2797
ag2920
ag2637
ag731
ag2618
ag3355
ag2336
ag1689
ag3390
ag535
ag2566
ag2562
ag2956
ag2120
ag1028
ag2456
ag99
ag3535
ag3277
ag2746
ag3345
ag2762
ag2442
ag3195
ag135
ag1337
ag1746
ag2875
ag1009
ag756
ag386
ag19
ag3700
ag3043
ag3663
ag2575
ag3349
ag244
ag1374
ag1300
ag235
ag2079
ag1482
ag2813
ag1077
ag3477
ag3032
ag3222
ag3465
ag735
ag2546
ag1215
ag1189
ag2410
ag3033
ag118
ag1837
ag3555
ag2528
ag905
ag1718
ag402
ag3557
ag3415
ag1098
ag1333
ag2759
ag2264
ag277
ag1513
ag1832
ag584
ag3368
ag2935
ag562
ag3607
ag3627
ag3220
ag1889
ag1546
ag1375
ag522
ag2611
ag3513
ag1705
ag3003
ag1592
ag3041
ag1548
ag1571
ag2200
ag2108
ag2163
ag2385
ag3298
ag3471
ag3308
ag3281
ag2014
ag655
ag3241
ag2087
ag3443
ag2386
ag2868
ag1706
ag2939
ag2664
ag454
ag2483
ag256
ag1584
ag3040
ag3307
ag3538
ag280
ag283
ag383
ag1345
ag932
ag2426
ag505
ag1581
ag390
ag1722
ag1425
ag2244
ag1102
ag1254
ag56
ag928
ag2636
ag2026
ag1433
ag1508
ag1100
ag194
ag1868
ag3655
ag2004
ag1343
ag2522
ag918
ag3606
ag913
ag1021
ag2165
ag3657
ag231
ag3295
ag1697
ag2437
ag2228
ag91
ag2581
ag1390
ag656
ag1598
ag1407
ag3656
ag425
ag2225
ag240
ag2389
ag3252
ag2343
ag2609
ag1436
ag1840
ag460
ag1386
ag30
ag3455
ag833
ag3506
ag3644
ag1784
ag1330
ag1365
ag1880
ag2207
ag2348
ag2913
ag297
ag3317
ag2931
ag516
ag1145
ag2254
ag711
ag1485
ag3327
ag3662
ag893
ag2239
ag922
ag1153
ag338
ag3416
ag3704
ag1799
ag3411
ag1660
ag2115
ag854
ag3073
ag3424
ag3254
ag2197
ag2009
ag217
ag2909
ag2539
ag2661
ag1257
ag602
ag2806
ag652
ag736
ag523
ag3614
ag3429
ag1580
ag670
ag440
ag1857
ag864
ag3068
ag1340
ag727
ag1895
ag3462
ag3711
ag3442
ag2245
ag806
ag700
ag377
ag1841
ag1941
ag152
ag2861
ag860
ag801
ag474
ag3211
ag1025
ag2374
ag2946
ag916
ag1969
ag739
ag3292
ag103
ag884
ag1520
ag3049
ag1093
ag199
ag1160
ag3097
ag254
ag3710
ag2703
ag2800
ag1948
ag1556
ag3556
ag2542
ag1116
ag2741
ag707
ag2942
ag279
ag2136
ag3174
ag2382
ag3449
ag120
ag2453
ag109
ag964
ag342
ag3331
ag3454
ag1204
ag26
ag1457
ag3476
ag1575
ag3293
ag2122
ag409
ag3329
ag2778
ag2925
ag2320
ag2834
ag3136
ag1019
ag591
ag2963
ag3074
ag2340
ag239
ag1569
ag3191
ag2620
ag1579
ag1065
ag1595
ag1550
ag2794
ag1727
ag233
ag1368
ag2888
ag997
ag1289
ag380
ag2720
ag3381
ag538
ag915
ag1008
ag3142
ag100
ag1626
ag1995
ag1611
ag1946
ag3234
ag951
ag769
ag63
ag2702
ag507
ag1542
ag1268
ag2818
ag259
ag3528
ag1639
ag2375
ag2379
ag1043
ag1044
ag782
ag2369
ag1648
ag1919
ag1437
ag2381
ag2949
ag1440
ag2995
ag2393
ag1260
ag2252
ag1323
ag565
ag58
ag2103
ag2438
ag2605
ag3351
ag2484
ag45
ag3691
ag1830
ag537
ag487
ag2005
ag3664
ag178
ag1530
ag2831
ag3157
ag1518
ag1539
ag2928
ag2924
ag3560
ag965
ag2391
ag1694
ag213
ag2656
ag362
ag710
ag423
ag1911
ag3508
ag3010
ag3276
ag426
ag1527
ag1027
ag1082
ag558
ag1022
ag590
ag805
ag495
ag457
ag1212
ag2126
ag618
ag3275
ag2283
ag557
ag1014
ag1585
ag549
ag2001
ag1616
ag2371
ag3301
ag2098
ag1174
ag597
ag926
ag855
ag3417
ag1596
ag1431
ag333
ag319
ag2781
ag2550
ag2917
ag35
ag1334
ag815
ag499
ag3386
ag831
ag2906
ag1382
ag3573
ag734
ag641
ag257
ag3306
ag2761
ag389
ag3511
ag3166
ag2809
ag667
ag911
ag3408
ag3484
ag1432
ag3438
ag1563
ag3156
ag1404
ag2921
ag2123
ag738
ag399
ag2117
ag96
ag270
ag3244
ag307
ag3203
ag242
ag1721
ag418
ag3615
ag1075
ag575
ag1186
ag3603
ag2372
ag1013
ag1836
ag2025
ag2299
ag1164
ag825
ag1698
ag2695
ag1610
ag471
ag3324
ag2616
ag2941
ag3522
ag907
ag309
ag3054
ag1967
ag3246
ag1171
ag732
ag3659
ag392
ag581
ag243
ag2884
ag3302
ag1634
ag561
ag2579
ag1018
ag2587
ag1589
ag2324
ag2632
ag2219
ag209
ag2701
ag97
ag2242
ag165
ag282
ag3405
ag675
ag563
ag3091
ag1484
ag3585
ag1293
ag1048
ag2100
ag572
ag53
ag3505
ag1341
ag2827
ag3620
ag3343
ag3382
ag1371
ag1326
ag1329
ag533
ag332
ag2161
ag352
ag2945
ag462
ag2601
ag1332
ag485
ag2029
ag2415
ag1136
ag311
ag2615
ag1047
ag1847
ag1897
ag3232
ag973
ag885
ag3624
ag2462
ag2013
ag1653
ag1062
ag599
ag3055
ag1628
ag2459
ag73
ag2846
ag1593
ag1601
ag350
ag1961
ag1675
ag677
ag1645
ag1356
ag3428
ag1635
ag141
ag2525
ag2689
ag2583
ag2125
ag2533
ag1852
ag2919
ag2247
ag2351
ag3102
ag2691
ag3294
ag953
ag3297
ag3582
ag2544
ag1599
ag2465
ag1046
ag2607
ag682
ag2338
ag836
ag1574
ag772
ag3669
ag2852
ag2669
ag3017
ag2487
ag3172
ag1166
ag1935
ag2158
ag2454
ag2472
ag2414
ag1287
ag1956
ag1286
ag486
ag2167
ag2773
ag3692
ag405
ag2877
ag129
ag2316
ag2679
ag716
ag1179
ag3163
ag3344
ag1328
ag1456
ag3693
ag633
ag564
ag343
ag3579
ag1016
ag2169
ag3070
ag3236
ag1647
ag3192
ag2844
ag1342
ag1602
ag1753
ag1798
ag3069
ag532
ag468
ag472
ag629
ag1255
ag2690
ag219
ag393
ag1269
ag2795
ag3412
ag518
ag1960
ag2606
ag743
ag1637
ag1017
ag18
ag715
ag1054
ag1939
ag467
ag2432
ag506
ag1298
ag62
ag2213
ag2250
ag3147
ag2292
ag322
ag2646
ag2080
ag2151
ag908
ag2660
ag3440
ag2370
ag2258
ag1674
ag1317
ag476
ag1299
ag1359
ag2345
ag2109
ag398
ag774
ag2922
ag179
ag674
ag3617
ag1957
ag3050
ag1042
ag668
ag93
ag456
ag2208
ag2665
ag726
ag310
ag2668
ag3543
ag2858
ag2458
ag2104
ag3130
ag2092
ag2255
ag2927
ag2511
ag1972
ag803
ag3082
ag2996
ag778
ag1714
ag3328
ag1099
ag1324
ag1097
ag3014
ag3231
ag2796
ag1590
ag3701
ag2614
ag3101
ag1271
ag2572
ag1151
ag658
ag1023
ag1105
ag3165
ag1636
ag2368
ag1720
ag1511
ag2251
ag2038
ag3523
ag666
ag3640
ag248
ag2853
ag693
ag61
ag3699
ag2685
ag1060
ag1453
ag1045
ag427
ag2527
ag3468
ag3629
ag1024
ag2951
ag1201
ag2677
ag2409
ag3347
ag826
ag830
ag550
ag2171
ag3282
ag3152
ag2000
ag3504
ag2196
ag2526
ag308
ag2300
ag2687
ag2337
ag2491
ag820
ag3613
ag1162
ag3080
ag1388
ag1762
ag3053
ag832
ag835
ag681
ag1165
ag2044
ag3015
ag3602
ag2578
ag2936
ag2046
ag2940
ag2349
ag3272
ag780
ag2388
ag1640
ag1439
ag1103
ag1582
ag3012
ag3240
ag636
ag312
ag3148
ag834
ag313
ag258
ag143
ag21
ag2408
ag1863
ag3694
ag1355
ag534
ag1757
ag887
ag2851
ag1907
ag3485
ag657
ag351
ag1380
ag709
ag2681
ag3608
asbsS'max_document_length'
p3719
I1
sS'_tokenizer'
p3720
ctensorflow.contrib.learn.python.learn.preprocessing.text
tokenizer
p3721
sS'min_frequency'
p3722
I0
sb.