ccopy_reg
_reconstructor
p1
(ctensorflow.contrib.learn.python.learn.preprocessing.text
VocabularyProcessor
p2
c__builtin__
object
p3
NtRp4
(dp5
S'vocabulary_'
p6
g1
(ctensorflow.contrib.learn.python.learn.preprocessing.categorical_vocabulary
CategoricalVocabulary
p7
g3
NtRp8
(dp9
S'_freeze'
p10
I01
sS'_unknown_token'
p11
S'<UNK>'
p12
sS'_support_reverse'
p13
I01
sS'_freq'
p14
ccollections
defaultdict
p15
(c__builtin__
int
p16
tRp17
S'Pussycat'
p18
I59
sS'Savage'
p19
I8
sS'Lead'
p20
I42
sS'Frontier'
p21
I710
sS'Gremlins'
p22
I1148
sS'Shadrach'
p23
I25
sS'Night'
p24
I5407
sS'Senseless'
p25
I55
sS'Stomper'
p26
I83
sS'Heights'
p27
I602
sS'Minnie'
p28
I15
sS'Sundance'
p29
I1419
sS'Kingpin'
p30
I765
sS'Conqueror'
p31
I109
sS'Paulie'
p32
I168
sS'Appeal'
p33
I23
sS'Supergirl'
p34
I182
sS'Encounter'
p35
I99
sS'Trans'
p36
I3
sS'kidotai'
p37
I314
sS'Mulan'
p38
I490
sS'Dansu'
p39
I350
sS'Mitt'
p40
I330
sS'Claus'
p41
I223
sS'Watch'
p42
I141
sS'Dietrich'
p43
I12
sS'Preferred'
p44
I18
sS'Parenthood'
p45
I811
sS'Visitors'
p46
I33
sS'Vengeance'
p47
I825
sS'Western'
p48
I377
sS'Karenina'
p49
I25
sS'Rainbow'
p50
I71
sS'peuple'
p51
I94
sS'Carnale'
p52
I2
sS'Popeye'
p53
I471
sS'Joe'
p54
I803
sS'Mystery'
p55
I3324
sS'League'
p56
I1341
sS'Drowning'
p57
I190
sS'Eaten'
p58
I2
sS'alles'
p59
I3
sS'Industry'
p60
I48
sS'Blade'
p61
I4092
sS'Getaway'
p62
I143
sS'Promesse'
p63
I24
sS'Patch'
p64
I474
sS'Bandit'
p65
I43
sS'Everest'
p66
I167
sS'Footloose'
p67
I435
sS'Stargate'
p68
I1116
sS'Digimon'
p69
I43
sS'Henry'
p70
I778
sS'Booty'
p71
I144
sS'Tomb'
p72
I46
sS'Sugar'
p73
I31
sS'Steal'
p74
I66
sS'Steam'
p75
I15
sS'Hunchback'
p76
I390
sS'Thomas'
p77
I1406
sS'Less'
p78
I168
sS'Catastrophes'
p79
I17
sS'Cl'
p80
I18
sS'Bacon'
p81
I187
sS'samurai'
p82
I628
sS'Hercules'
p83
I469
sS'Rocketship'
p84
I41
sS'Dangerously'
p85
I391
sS'Cowboys'
p86
I478
sS'Go'
p87
I1152
sS'Melody'
p88
I56
sS'Miniver'
p89
I82
sS'Panda'
p90
I18
sS'Sunrise'
p91
I466
sS'Dozen'
p92
I707
sS'Turkish'
p93
I15
sS'Mortal'
p94
I519
sS'Raiders'
p95
I2514
sS'Fistful'
p96
I522
sS'Festival'
p97
I7
sS'Nightmare'
p98
I2897
sS'Fiend'
p99
I35
sS'chez'
p100
I154
sS'Max'
p101
I2970
sS'Reindeer'
p102
I289
sS'Strange'
p103
I638
sS'Mutters'
p104
I1
sS'Cutthroat'
p105
I146
sS'7th'
p106
I258
sS'Theater'
p107
I456
sS'Charade'
p108
I306
sS'Wag'
p109
I907
sS"Jesus'"
p110
I148
sS"Sophie's"
p111
I344
sS'Arizona'
p112
I1434
sS'Places'
p113
I1052
sS'dello'
p114
I9
sS'Bedrooms'
p115
I21
sS'Kagemusha'
p116
I141
sS'Castaways'
p117
I18
sS'Until'
p118
I136
sS'Screamers'
p119
I178
sS'Wrong'
p120
I1040
sS'Sonata'
p121
I30
sS'Dumbo'
p122
I781
sS'Trespassers'
p123
I19
sS'Sally'
p124
I1568
sS'Bigger'
p125
I1269
sS'Made'
p126
I112
sS'Glimmer'
p127
I101
sS'habla'
p128
I1
sS'Yeller'
p129
I301
sS'Plennik'
p130
I14
sS'Dreaming'
p131
I13
sS"Doug's"
p132
I40
sS'Heidi'
p133
I50
sS'Habits'
p134
I17
sS'Doe'
p135
I82
sS'Faces'
p136
I216
sS'Welt'
p137
I136
sS'100'
p138
I2
sS'101'
p139
I929
sS'Snowman'
p140
I262
sS'Leagues'
p141
I575
sS'X-Men'
p142
I1511
sS'Retroactive'
p143
I16
sS'k'
I3422
sS'Queen'
p144
I1655
sS'Gangstas'
p145
I6
sS'Taffin'
p146
I8
sS'Pieces'
p147
I359
sS'Hush'
p148
I42
sS'Andre'
p149
I55
sS'milagros'
p150
I7
sS'Verge'
p151
I353
sS'Wonderland'
p152
I807
sS'Home'
p153
I3295
sS'Serial'
p154
I628
sS'Siebtelbauern'
p155
I2
sS'Afternoon'
p156
I809
sS'Wire'
p157
I680
sS'Kilimanjaro'
p158
I5
sS'Giving'
p159
I48
sS'Harvey'
p160
I356
sS'Lover'
p161
I244
sS'Boot'
p162
I1001
sS'Three'
p163
I3811
sS'Relations'
p164
I2
sS'Browne'
p165
I34
sS'Also'
p166
I2
sS'Book'
p167
I1274
sS'Trees'
p168
I102
sS'Opportunists'
p169
I16
sS'Basic'
p170
I751
sS'Wales'
p171
I365
sS'Piano'
p172
I608
sS'Mouth'
p173
I215
sS'Beavis'
p174
I475
sS'Uomo'
p175
I14
sS'Sirens'
p176
I207
sS'Junk'
p177
I3
sS'Star'
p178
I21046
sS'Fu'
p179
I43
sS'Juno'
p180
I1
sS'Lifeforce'
p181
I183
sS'Express'
p182
I504
sS'Jazz'
p183
I317
sS'Stay'
p184
I71
sS'cents'
p185
I187
sS'Moment'
p186
I5
sS'Killers'
p187
I1019
sS'Ipcress'
p188
I81
sS'Scrooged'
p189
I516
sS'Harriet'
p190
I121
sS'Nah'
p191
I66
sS'Mirando'
p192
I31
sS'Brighton'
p193
I225
sS'Wirey'
p194
I2
sS'Blind'
p195
I210
sS'Christine'
p196
I273
sS"Bug's"
p197
I1703
sS'Do-Right'
p198
I121
sS'Spiral'
p199
I43
sS'Plunkett'
p200
I42
sS'Person'
p201
I21
sS'macor'
p202
I23
sS'Gould'
p203
I157
sS'V'
I4584
sS'Film'
p204
I21
sS'prendront'
p205
I9
sS'Della'
p206
I24
sS'1991'
p207
I24783
sS'1990'
p208
I30317
sS'Crazy'
p209
I1246
sS'1992'
p210
I37898
sS'1995'
p211
I60754
sS'1994'
p212
I52963
sS'1997'
p213
I65402
sS'1996'
p214
I59382
sS'1999'
p215
I86833
sS'1998'
p216
I68226
sS'Poppins'
p217
I1011
sS'Point'
p218
I61
sS'Crown'
p219
I1369
sS'Caught'
p220
I28
sS'Hollow'
p221
I1487
sS'Evita'
p222
I282
sS"Curly's"
p223
I392
sS'Herbie'
p224
I340
sS'Dictator'
p225
I216
sS'Handle'
p226
I17
sS'Mussolini'
p227
I122
sS'Bogus'
p228
I43
sS'Standing'
p229
I256
sS'Shoot'
p230
I328
sS'Le'
p231
I1332
sS'Sobre'
p232
I394
sS'La'
p233
I3206
sS'Lo'
p234
I31
sS'Lin'
p235
I59
sS'Wizard'
p236
I1718
sS'Hurricane'
p237
I516
sS'Jerry'
p238
I1416
sS'Reality'
p239
I428
sS'Brian'
p240
I926
sS'Stakeout'
p241
I179
sS'Homegrown'
p242
I104
sS'Ninth'
p243
I298
sS'Daze'
p244
I87
sS'Tie'
p245
I276
sS'Roustabout'
p246
I34
sS'Lord'
p247
I995
sS"Michele's"
p248
I755
sS'Apu'
p249
I56
sS'Whipped'
p250
I37
sS'Man-in-the-Moon'
p251
I55
sS'Eagle'
p252
I602
sS'Kavkazsky'
p253
I14
sS'Peaks'
p254
I163
sS'Idiots'
p255
I37
sS"Margaret's"
p256
I11
sS'Journal'
p257
I8
sS'Massacre'
p258
I597
sS'Blackmail'
p259
I11
sS'Killing'
p260
I1054
sS'Anatomy'
p261
I209
sS'Josey'
p262
I365
sS'Notting'
p263
I780
sS'Jack'
p264
I849
sS'Miranda'
p265
I4
sS'Falcon'
p266
I1296
sS'Prophecy'
p267
I241
sS'Tic'
p268
I13
sS'III'
p269
I6665
sS'Sandpiper'
p270
I33
sS'A'
I31470
sS"L'"
p271
I78
sS'Correspondent'
p272
I93
sS'Lucas'
p273
I155
sS'Pasqualino'
p274
I77
sS'Hi-Lo'
p275
I26
sS'Ollie'
p276
I1
sS'Interrupted'
p277
I431
sS'Ocean'
p278
I169
sS'Will'
p279
I2010
sS'Cowboy'
p280
I1233
sS'Tombstone'
p281
I553
sS'Sexes'
p282
I4
sS'Wild'
p283
I3379
sS'Palookaville'
p284
I35
sS'Desperate'
p285
I111
sS'Spaceballs'
p286
I899
sS'las'
p287
I69
sS'Bacheha-Ye'
p288
I61
sS'All'
p289
I3070
sS'Thinner'
p290
I174
sS'Tough'
p291
I133
sS'Bananas'
p292
I480
sS"Player's"
p293
I33
sS'Civil'
p294
I612
sS'Pigeons'
p295
I125
sS'Associate'
p296
I50
sS'macka'
p297
I23
sS'Vibes'
p298
I50
sS'Sphere'
p299
I541
sS'Fabulous'
p300
I358
sS'Another'
p301
I634
sS'belle'
p302
I18
sS'Navigator'
p303
I646
sS'Beyond'
p304
I1095
sS'Irene'
p305
I560
sS'Hustler'
p306
I450
sS'Blue'
p307
I4002
sS'Faye'
p308
I82
sS'Plaid'
p309
I367
sS'Eye'
p310
I1558
sS'Hills'
p311
I1010
sS'Jurassic'
p312
I3927
sS'Duel'
p313
I72
sS'Newmar'
p314
I203
sS'She-Devil'
p315
I157
sS'Revenge'
p316
I622
sS'Jules'
p317
I296
sS'Roadside'
p318
I12
sS'Outbreak'
p319
I733
sS'Ordinary'
p320
I623
sS'klaka'
p321
I16
sS'enfants'
p322
I100
sS'Coldblooded'
p323
I18
sS'Hip'
p324
I54
sS'Urban'
p325
I318
sS'Abbott'
p326
I206
sS'His'
p327
I709
sS'Hero'
p328
I1038
sS'Onegin'
p329
I19
sS"What's"
p330
I890
sS"Blackbeard's"
p331
I57
sS'Here'
p332
I616
sS'Diabolique'
p333
I71
sS'Ada'
p334
I5
sS'Cutting'
p335
I200
sS'Emerald'
p336
I142
sS'Judge'
p337
I564
sS'Dreamlife'
p338
I141
sS'Burnt'
p339
I176
sS'Requiem'
p340
I307
sS'Raising'
p341
I1434
sS'Mercy'
p342
I61
sS'Kids'
p343
I1755
sS'Consequences'
p344
I57
sS'Bobby'
p345
I720
sS'Lifeboat'
p346
I213
sS'Gotta'
p347
I210
sS'Bullwinkle'
p348
I206
sS'Motion'
p349
I792
sS'Prisoners'
p350
I47
sS'Steps'
p351
I253
sS'Arrow'
p352
I638
sS'Cabinet'
p353
I2
sS'Minus'
p354
I83
sS'Bonfire'
p355
I118
sS'Cr'
p356
I28
sS'Control'
p357
I556
sS'Taming'
p358
I139
sS'Stuart'
p359
I632
sS'Shield'
p360
I11
sS'Cairo'
p361
I479
sS'Sting'
p362
I1049
sS'vesanje'
p363
I10
sS'Four'
p364
I1446
sS'Shame'
p365
I102
sS'Program'
p366
I152
sS'Ligeia'
p367
I10
sS'Dutchman'
p368
I6
sS'Saddles'
p369
I1119
sS'Zhivago'
p370
I564
sS'Rosewood'
p371
I126
sS'Hate'
p372
I764
sS'Check'
p373
I96
sS'Violon'
p374
I583
sS'Quartermain'
p375
I137
sS'Plot'
p376
I126
sS'Curse'
p377
I316
sS'nave'
p378
I20
sS'Destiny'
p379
I13
sS'Cop'
p380
I882
sS'Sparks'
p381
I46
sS'Neon'
p382
I2
sS'Yojimbo'
p383
I215
sS'Balto'
p384
I99
sS'Tigger'
p385
I129
sS'Springer'
p386
I59
sS'Bonnie'
p387
I686
sS'Woo'
p388
I11
sS'Won'
p389
I37
sS'Unknown'
p390
I12
sS'Core'
p391
I11
sS'Factor'
p392
I56
sS'Diner'
p393
I839
sS'Henge'
p394
I7
sS'Holy'
p395
I1773
sS'Juice'
p396
I111
sS'Local'
p397
I351
sS'Wars'
p398
I11114
sS'Muse'
p399
I157
sS'Romeo'
p400
I1283
sS'Producers'
p401
I658
sS'Wonders'
p402
I4
sS"'em"
p403
I241
sS'Rabbit'
p404
I1799
sS'VI'
p405
I3996
sS'Brujo'
p406
I5
sS'Sands'
p407
I83
sS'Hole'
p408
I295
sS'Saragossie'
p409
I11
sS'Tennis'
p410
I128
sS'Junior'
p411
I218
sS'Caf'
p412
I2
sS'Must'
p413
I1174
sS'Scary'
p414
I613
sS'Wore'
p415
I128
sS'autoportrait'
p416
I4
sS'Leatherface'
p417
I62
sS'Work'
p418
I135
sS'Metal'
p419
I1919
sS'Hellbound'
p420
I167
sS'Goldmine'
p421
I126
sS'Planet'
p422
I3557
sS'Romancing'
p423
I1345
sS'W'
I30
sS'Excalibur'
p424
I742
sS'Soft'
p425
I10
sS'Vita'
p426
I1152
sS'Nixon'
p427
I153
sS'Toyland'
p428
I243
sS'Chain'
p429
I238
sS'Vie'
p430
I296
sS'September'
p431
I68
sS'Macao'
p432
I2
sS'National'
p433
I49
sS'Chao'
p434
I21
sS'xue'
p435
I244
sS'Nain'
p436
I4
sS'Sudden'
p437
I104
sS'Mighty'
p438
I1684
sS'Bandits'
p439
I1019
sS'Mirror'
p440
I211
sS'Faust'
p441
I31
sS"Warrior's"
p442
I15
sS'Blechtrommel'
p443
I94
sS'Irresistible'
p444
I115
sS'Bridges'
p445
I387
sS'Working'
p446
I514
sS'Celluloid'
p447
I141
sS'Traveller'
p448
I36
sS'H20'
p449
I199
sS'Fight'
p450
I2447
sS'Cell'
p451
I658
sS'Crossing'
p452
I408
sS'Going'
p453
I63
sS'Bliss'
p454
I40
sS'Barbarella'
p455
I386
sS'Screaming'
p456
I93
sS'Folks'
p457
I306
sS'Wives'
p458
I596
sS'Monsters'
p459
I578
sS'Tomatoes'
p460
I799
sS'Sonic'
p461
I2
sS'Anchors'
p462
I103
sS'Killbots'
p463
I44
sS'Lieutenant'
p464
I171
sS'Academy'
p465
I1307
sS'Fugitive'
p466
I1995
sS'Johns'
p467
I26
sS'Burlesque'
p468
I13
sS'Heathers'
p469
I803
sS'Q'
I367
sS"Jason's"
p470
I40
sS'Invasion'
p471
I628
sS'Judgment'
p472
I2782
sS'Shawshank'
p473
I2227
sS'Floats'
p474
I387
sS'toit'
p475
I72
sS'Search'
p476
I950
sS'B'
I114
sS'Dingo'
p477
I3
sS'speriamo'
p478
I21
sS'EDtv'
p479
I302
sS'D'
I264
sS'Disco'
p480
I135
sS'Marcello'
p481
I13
sS'Twice'
p482
I165
sS'Edge'
p483
I783
sS'Sunset'
p484
I948
sS'Cannibal'
p485
I1
sS'Shots'
p486
I610
sS'Pesos'
p487
I2
sS'Fun'
p488
I35
sS'Velocity'
p489
I159
sS'Daddy'
p490
I829
sS'Beautiful'
p491
I1517
sS'Gigolo'
p492
I603
sS'Beauties'
p493
I77
sS'Ilsa'
p494
I25
sS"Muriel's"
p495
I518
sS'Autopsy'
p496
I2
sS'Allan'
p497
I137
sS'Sex'
p498
I1503
sS'See'
p499
I36
sS'Frequency'
p500
I821
sS'Gang'
p501
I361
sS'Sea'
p502
I1720
sS'1976'
p503
I6314
sS'Madonna'
p504
I209
sS'tres'
p505
I8
sS'Gann'
p506
I154
sS'Galaxy'
p507
I1728
sS'Mercies'
p508
I264
sS'Beetlejuice'
p509
I1495
sS'Saves'
p510
I112
sS'Dying'
p511
I128
sS'Floor'
p512
I391
sS'Mind'
p513
I28
sS'Sent-Down'
p514
I69
sS'Vampire'
p515
I1339
sS'98'
p516
I6
sS"Warhol's"
p517
I36
sS'Ferris'
p518
I1473
sS'Animation'
p519
I438
sS'Sonja'
p520
I189
sS'Collins'
p521
I170
sS'Holly'
p522
I199
sS'Soylent'
p523
I422
sS'Angels'
p524
I1201
sS'Avenger'
p525
I297
sS'Experience'
p526
I18
sS'Then'
p527
I76
sS'Poets'
p528
I855
sS'1968'
p529
I7526
sS'1969'
p530
I4759
sS'1964'
p531
I4296
sS'1965'
p532
I3649
sS'1966'
p533
I2312
sS'1967'
p534
I6407
sS'-'
I11508
sS'1961'
p535
I4846
sS'1962'
p536
I4930
sS'1963'
p537
I6288
sS"Let's"
p538
I46
sS'Band'
p539
I298
sS'Congo'
p540
I565
sS'Minister'
p541
I4
sS'They'
p542
I354
sS'Kj'
p543
I2
sS'Happiest'
p544
I37
sS'Omega'
p545
I296
sS'insolito'
p546
I97
sS'Bank'
p547
I150
sS'Jones'
p548
I3027
sS'Absent'
p549
I380
sS'Flamingo'
p550
I294
sS'Wish'
p551
I490
sS'Wend'
p552
I1
sS'Shooter'
p553
I10
sS'Lucy'
p554
I68
sS'hui'
p555
I66
sS'Talks'
p556
I65
sS'Bikini'
p557
I71
sS'Roommates'
p558
I35
sS"Soldier's"
p559
I234
sS'Pandora'
p560
I6
sS'Logic'
p561
I30
sS'Comet'
p562
I281
sS'Went'
p563
I395
sS'Side'
p564
I1154
sS'Bone'
p565
I816
sS'Luck'
p566
I474
sS'Twelve'
p567
I1595
sS'Cobra'
p568
I5
sS"Rosemary's"
p569
I712
sS'Kolya'
p570
I189
sS'Solyaris'
p571
I143
sS'Pont-Neuf'
p572
I41
sS'Crow'
p573
I882
sS'Delicatessen'
p574
I368
sS'Bound'
p575
I949
sS'Disclosure'
p576
I254
sS'cembre'
p577
I4
sS'Single'
p578
I455
sS'quan'
p579
I133
sS'sources'
p580
I220
sS'Election'
p581
I1522
sS'Want'
p582
I41
sS'Anaconda'
p583
I399
sS'Clockwatchers'
p584
I164
sS'Citizens'
p585
I174
sS'Native'
p586
I24
sS'Scent'
p587
I555
sS'Heartbreak'
p588
I300
sS'Umbrellas'
p589
I117
sS'Settebellezze'
p590
I77
sS'Macht'
p591
I62
sS'Lait'
p592
I2
sS'Zeus'
p593
I23
sS'Ridge'
p594
I300
sS'Carriers'
p595
I3
sS'Hallways'
p596
I21
sS'Flash'
p597
I374
sS'Crockett'
p598
I97
sS'Moskowitz'
p599
I15
sS'Innocents'
p600
I23
sS'Paradise'
p601
I863
sS'Anne'
p602
I41
sS'Twister'
p603
I1110
sS'Paradiso'
p604
I615
sS'Anna'
p605
I359
sS'European'
p606
I385
sS'Barefoot'
p607
I233
sS'Nuit'
p608
I1
sS'Big'
p609
I8492
sS'Game'
p610
I2996
sS'Phantoms'
p611
I77
sS'Fred'
p612
I441
sS'Tian'
p613
I69
sS'Records'
p614
I271
sS'Foolish'
p615
I1
sS'Unforgiven'
p616
I997
sS'Mohicans'
p617
I975
sS'Flirting'
p618
I318
sS"Boyfriend's"
p619
I37
sS'History'
p620
I1011
sS'Bis'
p621
I136
sS'Braindead'
p622
I70
sS'au'
p623
I2
sS'Reds'
p624
I215
sS'znaleziony'
p625
I11
sS'Crumb'
p626
I664
sS'Choices'
p627
I1
sS'Carnival'
p628
I146
sS'10'
p629
I899
sS'Turns'
p630
I13
sS'Ben-Hur'
p631
I704
sS'de'
p632
I1692
sS'Midwinter'
p633
I13
sS'Days'
p634
I4238
sS'da'
p635
I97
sS'Leave'
p636
I105
sS'Ruling'
p637
I96
sS'Quick'
p638
I418
sS'X'
I2077
sS'Cleane'
p639
I42
sS'du'
p640
I149
sS'Loud'
p641
I179
sS'Husband'
p642
I390
sS'Matilda'
p643
I218
sS'Spattered'
p644
I2
sS'ner'
p645
I81
sS'Over'
p646
I2344
sS'Washington'
p647
I454
sS'Searching'
p648
I720
sS'Agent'
p649
I24
sS'Strangelove'
p650
I1367
sS'Rio'
p651
I201
sS'Dances'
p652
I1451
sS'Tingle'
p653
I199
sS'Mockingbird'
p654
I928
sS'34th'
p655
I550
sS'Circus'
p656
I27
sS'Ronin'
p657
I806
sS"Krippendorf's"
p658
I108
sS"Cat's"
p659
I162
sS'Glen'
p660
I624
sS'Ladyhawke'
p661
I542
sS'Jackson'
p662
I185
sS'Sanjuro'
p663
I69
sS'Pet'
p664
I1187
sS'Belle'
p665
I168
sS'Horrible'
p666
I62
sS'Xizhao'
p667
I63
sS'Mine'
p668
I20
sS'Belly'
p669
I8
sS'Sydney'
p670
I186
sS'Sleeper'
p671
I744
sS'Butler'
p672
I10
sS'Trois'
p673
I1
sS"Tiffany's"
p674
I676
sS'John'
p675
I2323
sS'Hardly'
p676
I306
sS'Dogs'
p677
I2254
sS'Bells'
p678
I2
sS"Bustin'"
p679
I49
sS'Second'
p680
I111
sS'Territory'
p681
I203
sS'Run'
p682
I5558
sS'Risk'
p683
I54
sS'Horror'
p684
I1609
sS'Rise'
p685
I124
sS'Cronos'
p686
I61
sS'Choice'
p687
I344
sS'Water'
p688
I792
sS'Fluke'
p689
I29
sS"Labour's"
p690
I45
sS'Afterglow'
p691
I82
sS'Minded'
p692
I380
sS'Yards'
p693
I679
sS'Lay'
p694
I1
sS'Raven'
p695
I82
sS'Bringing'
p696
I970
sS"Dinosaur's"
p697
I29
sS'Trek'
p698
I9014
sS'Patient'
p699
I989
sS'Central'
p700
I541
sS'Colored'
p701
I33
sS'Metroland'
p702
I28
sS'Lowdown'
p703
I288
sS'Dellamore'
p704
I101
sS'Soldier'
p705
I756
sS'Oblivion'
p706
I252
sS'These'
p707
I2
sS'Bronx'
p708
I833
sS'Thumbelina'
p709
I43
sS'Weird'
p710
I510
sS'Marshalls'
p711
I448
sS'Yours'
p712
I20
sS'Bloody'
p713
I1
sS'Among'
p714
I9
sS"Stoker's"
p715
I672
sS"Brother's"
p716
I2
sS'Dance'
p717
I650
sS'Malice'
p718
I185
sS'Waking'
p719
I844
sS'Laura'
p720
I431
sS'Bring'
p721
I234
sS'Demented'
p722
I69
sS'Computer'
p723
I128
sS'une'
p724
I91
sS'Assignment'
p725
I424
sS'Navy'
p726
I156
sS'Logo'
p727
I11
sS'Dawn'
p728
I1937
sS'Yankee'
p729
I2
sS'Dry'
p730
I19
sS'Honors'
p731
I228
sS'Clay'
p732
I125
sS'Closer'
p733
I2
sS'Carolina'
p734
I63
sS'Given'
p735
I483
sS'Apartment'
p736
I548
sS'Illusions'
p737
I139
sS'Closet'
p738
I141
sS'Bure'
p739
I11
sS'Deceivers'
p740
I3
sS'mer'
p741
I7
sS'Snow'
p742
I1548
sS'Addicted'
p743
I240
sS'Returns'
p744
I1127
sS'Assedio'
p745
I41
sS'Forest'
p746
I142
sS'Amor'
p747
I5
sS'paradis'
p748
I100
sS'Sudeste'
p749
I31
sS'Holidays'
p750
I99
sS'Lesbos'
p751
I3
sS'Ulysses'
p752
I1
sS'Illtown'
p753
I2
sS'Arctic'
p754
I48
sS'Dimension'
p755
I611
sS'Early'
p756
I7
sS'eso'
p757
I1
sS'Kronos'
p758
I51
sS"You've"
p759
I838
sS'Your'
p760
I1277
sS'Prisoner'
p761
I507
sS'Soapdish'
p762
I365
sS'Algiers'
p763
I16
sS'Poseidon'
p764
I656
sS'Adams'
p765
I474
sS'Vanities'
p766
I118
sS'Flor'
p767
I17
sS'nella'
p768
I5
sS'Cry'
p769
I1158
sS'Expectations'
p770
I263
sS'Haunting'
p771
I659
sS'Verdict'
p772
I379
sS'Misery'
p773
I884
sS'Indemnity'
p774
I551
sS'Voice'
p775
I357
sS'Bites'
p776
I582
sS"Can't"
p777
I1055
sS'Blink'
p778
I57
sS'Shave'
p779
I657
sS'Upper'
p780
I13
sS'Coneheads'
p781
I533
sS'Cleaning'
p782
I2
sS'Rocket'
p783
I341
sS'Attraction'
p784
I802
sS'Hoop'
p785
I716
sS'Avengers'
p786
I288
sS'Jade'
p787
I91
sS'Hook'
p788
I726
sS'Accused'
p789
I123
sS'T-Men'
p790
I15
sS'Follow'
p791
I88
sS'delle'
p792
I14
sS'Hood'
p793
I1858
sS'cons'
p794
I81
sS'is'
p795
I194
sS'Horatio'
p796
I105
sS'Vacation'
p797
I1665
sS'Ideal'
p798
I390
sS'il'
p799
I80
sS'Sword'
p800
I293
sS'in'
p801
I25691
sS'Falling'
p802
I958
sS"'Night"
p803
I70
sS'if'
p804
I79
sS'Horses'
p805
I149
sS'Kundun'
p806
I176
sS'Jeffrey'
p807
I93
sS'shuang'
p808
I244
sS'Around'
p809
I475
sS'Roseanna'
p810
I36
sS'Python'
p811
I1599
sS'Dracula'
p812
I1325
sS'Sequel'
p813
I747
sS'Stop'
p814
I1981
sS'bella'
p815
I1152
sS'Boiling'
p816
I61
sS'Placid'
p817
I421
sS'Of'
p818
I386
sS'Crna'
p819
I23
sS'President'
p820
I1033
sS'Rapture'
p821
I148
sS'Worlds'
p822
I565
sS'Runs'
p823
I623
sS'Brain'
p824
I320
sS'Room'
p825
I1444
sS'Maguire'
p826
I1353
sS'Institute'
p827
I3
sS'Maybe'
p828
I20
sS'Cajun'
p829
I13
sS'Roof'
p830
I323
sS'Distance'
p831
I129
sS'Values'
p832
I463
sS'Truce'
p833
I2
sS'notte'
p834
I21
sS'Salvation'
p835
I13
sS'Notti'
p836
I111
sS'Pelican'
p837
I346
sS'Serpico'
p838
I495
sS'Patrol'
p839
I174
sS'1979'
p840
I13677
sS'1978'
p841
I8624
sS'1977'
p842
I8527
sS'Skulls'
p843
I302
sS'1975'
p844
I8486
sS'1974'
p845
I10350
sS'1973'
p846
I8617
sS'1972'
p847
I6042
sS'1971'
p848
I7529
sS'1970'
p849
I4470
sS'Vs'
p850
I523
sS'Vu'
p851
I18
sS'Table'
p852
I9
sS'the'
p853
I94697
sS'Absolute'
p854
I380
sS'Couple'
p855
I453
sS'Coup'
p856
I15
sS'Oz'
p857
I1994
sS'Sarah'
p858
I19
sS'Pushing'
p859
I556
sS'Streetcar'
p860
I483
sS'Versprechen'
p861
I2
sS'Thunder'
p862
I420
sS'Enfer'
p863
I5
sS'Destination'
p864
I524
sS'Nuts'
p865
I80
sS'Sjunde'
p866
I299
sS'Crime'
p867
I299
sS'Idle'
p868
I207
sS'Aardman'
p869
I438
sS"Widows'"
p870
I38
sS'Heavenly'
p871
I480
sS'Surprise'
p872
I33
sS'Maverick'
p873
I802
sS'Happy'
p874
I869
sS'Eternity'
p875
I371
sS'Error'
p876
I71
sS'Grass'
p877
I132
sS'Vampyros'
p878
I3
sS'Gay'
p879
I108
sS'Fling'
p880
I1
sS'Remembered'
p881
I41
sS'Forbidden'
p882
I373
sS'Gao'
p883
I65
sS'Bilko'
p884
I140
sS'Amityville'
p885
I556
sS'Wear'
p886
I494
sS'Warriors'
p887
I480
sS'hap'
p888
I66
sS'News'
p889
I789
sS'Souls'
p890
I326
sS'Tingler'
p891
I63
sS'Apart'
p892
I2
sS'Wagon'
p893
I71
sS"Barney's"
p894
I40
sS'Kiss'
p895
I1441
sS'Lords'
p896
I85
sS'Robbersons'
p897
I64
sS'James'
p898
I528
sS'Taking'
p899
I276
sS'Howards'
p900
I480
sS'Tre'
p901
I30
sS'Alice'
p902
I622
sS'Morning'
p903
I1169
sS'Roberts'
p904
I836
sS'Fear'
p905
I2487
sS'Byrd'
p906
I1
sS'Art'
p907
I277
sS'Menace'
p908
I2659
sS'Wing'
p909
I175
sS'Wind'
p910
I1424
sS'Wine'
p911
I35
sS'Bodeos'
p912
I24
sS'Heart'
p913
I1670
sS'Bomb'
p914
I1367
sS'Pendulum'
p915
I107
sS'Brenda'
p916
I6
sS'Frogs'
p917
I5
sS'54'
p918
I259
sS'Donnie'
p919
I719
sS'Damsel'
p920
I23
sS'Indecent'
p921
I217
sS'Framed'
p922
I1799
sS'Arc'
p923
I341
sS'Trading'
p924
I839
sS'Are'
p925
I573
sS'Simpatico'
p926
I21
sS'Ladybird'
p927
I56
sS'Goonies'
p928
I716
sS'Ark'
p929
I2514
sS'Prince'
p930
I1308
sS'Witness'
p931
I1075
sS'Lonely'
p932
I50
sS'Abyss'
p933
I1715
sS'Mina'
p934
I19
sS'ldum'
p935
I16
sS'Nightmares'
p936
I10
sS'Dredd'
p937
I564
sS'Steamboat'
p938
I197
sS'Hilary'
p939
I160
sS'Dumpling'
p940
I341
sS'Berlin'
p941
I270
sS'Dusk'
p942
I914
sS'Much'
p943
I983
sS'Catfish'
p944
I15
sS'Between'
p945
I19
sS'Fargo'
p946
I2513
sS'52'
p947
I140
sS'Smell'
p948
I431
sS'Inferno'
p949
I296
sS'Modulations'
p950
I2
sS'Aristocats'
p951
I278
sS'Shattered'
p952
I12
sS'Life'
p953
I6591
sS'Cube'
p954
I233
sS'Tampopo'
p955
I245
sS'Sling'
p956
I1483
sS'Cuba'
p957
I10
sS'Siege'
p958
I1199
sS'Sixteen'
p959
I719
sS'Safe'
p960
I142
sS'Davy'
p961
I97
sS'Dave'
p962
I948
sS'Les'
p963
I1033
sS'Let'
p964
I422
sS'Ho'
p965
I244
sS'Drinking'
p966
I111
sS'Pocahontas'
p967
I382
sS'Backbeat'
p968
I120
sS'He'
p969
I189
sS'School'
p970
I1321
sS'Jakes'
p971
I62
sS'Sangre'
p972
I1
sS'Learning'
p973
I141
sS'Calls'
p974
I409
sS'Divorcee'
p975
I105
sS'Chairs'
p976
I84
sS'Jericho'
p977
I14
sS'Mallrats'
p978
I451
sS'Thing'
p979
I2950
sS'Bambi'
p980
I589
sS'Plenty'
p981
I37
sS'Place'
p982
I206
sS'Minds'
p983
I155
sS'Swing'
p984
I185
sS'Jafar'
p985
I163
sS'Bamba'
p986
I266
sS'Emperor'
p987
I680
sS'Been'
p988
I624
sS'First'
p989
I3790
sS'Bleu'
p990
I87
sS'Madison'
p991
I742
sS'hund'
p992
I330
sS"'is"
p993
I2
sS'Dalmatians'
p994
I929
sS'Fair'
p995
I735
sS'Baggage'
p996
I88
sS'Fine'
p997
I226
sS'Image'
p998
I12
sS'Thirteenth'
p999
I391
sS'Cheap'
p1000
I189
sS'o'
I18
sS'Arm'
p1001
I90
sS"Love's"
p1002
I45
sS'le'
p1003
I133
sS'Without'
p1004
I683
sS'Powder'
p1005
I624
sS'Birdy'
p1006
I223
sS'Jagged'
p1007
I244
sS'Magoo'
p1008
I64
sS'Still'
p1009
I911
sS'Birds'
p1010
I733
sS'Best'
p1011
I2584
sS'Trap'
p1012
I526
sS'sposo'
p1013
I9
sS'Hong'
p1014
I65
sS'Boulevard'
p1015
I470
sS'Paradine'
p1016
I20
sS'Knowledge'
p1017
I166
sS'maudit'
p1018
I60
sS'Again'
p1019
I836
sS'Make'
p1020
I187
sS'som'
p1021
I330
sS'Poison'
p1022
I280
sS'son'
p1023
I45
sS'Few'
p1024
I1386
sS'Immortality'
p1025
I13
sS'Ending'
p1026
I975
sS'Vinny'
p1027
I1086
sS'formidable'
p1028
I2
sS'Sorority'
p1029
I50
sS'Schlafes'
p1030
I1
sS'Slaves'
p1031
I2
sS'Hank'
p1032
I54
sS'Stag'
p1033
I5
sS'Chambermaid'
p1034
I20
sS'Hang'
p1035
I241
sS'Hand'
p1036
I1342
sS'Thunderdome'
p1037
I722
sS'Legs'
p1038
I38
sS'Ende'
p1039
I136
sS'Manchu'
p1040
I43
sS'Amigos'
p1041
I584
sS'Blast'
p1042
I360
sS'Peak'
p1043
I359
sS'Rangoon'
p1044
I87
sS'Hirschfeld'
p1045
I16
sS'mich'
p1046
I12
sS'Rocky'
p1047
I4063
sS'Captives'
p1048
I2
sS'Slumber'
p1049
I68
sS'6'
I227
sS'Limey'
p1050
I474
sS'Rocks'
p1051
I340
sS'Septi'
p1052
I8
sS'Dalloway'
p1053
I58
sS'Digging'
p1054
I5
sS'Jean'
p1055
I224
sS'Kazaam'
p1056
I120
sS'Foxfire'
p1057
I103
sS'Distinguished'
p1058
I130
sS'Joon'
p1059
I481
sS'Left'
p1060
I453
sS'Golden'
p1061
I2559
sS'Seventeen'
p1062
I36
sS'Phenomenon'
p1063
I427
sS'Whom'
p1064
I98
sS"Craven's"
p1065
I251
sS'Conquest'
p1066
I358
sS'County'
p1067
I387
sS'Gumby'
p1068
I10
sS'Puppet'
p1069
I648
sS'Greenberg'
p1070
I54
sS'Grateful'
p1071
I22
sS'Andy'
p1072
I136
sS'Odd'
p1073
I453
sS'Lolita'
p1074
I422
sS'Sir'
p1075
I203
sS'Vista'
p1076
I230
sS'Pick-Up'
p1077
I140
sS'Copycat'
p1078
I378
sS'Professore'
p1079
I21
sS'Personal'
p1080
I139
sS'Twenty'
p1081
I5
sS'Tales'
p1082
I569
sS'Six'
p1083
I794
sS'Jealousy'
p1084
I32
sS'Trixie'
p1085
I24
sS'Amistad'
p1086
I351
sS'Crush'
p1087
I178
sS'Virgin'
p1088
I329
sS'Squad'
p1089
I906
sS'Sid'
p1090
I304
sS'Cut'
p1091
I92
sS'Sin'
p1092
I47
sS'Highway'
p1093
I145
sS'Brasil'
p1094
I215
sS'Hairy'
p1095
I4
sS'Chef'
p1096
I24
sS'Francisco'
p1097
I67
sS'Brasco'
p1098
I719
sS'Monster'
p1099
I133
sS'Tibet'
p1100
I370
sS"Ramblin'"
p1101
I18
sS"Greaser's"
p1102
I9
sS'when'
p1103
I166
sS'Andrew'
p1104
I81
sS'Falls'
p1105
I446
sS'Eighty-Four'
p1106
I278
sS'Dersu'
p1107
I92
sS'Running'
p1108
I990
sS'Darkside'
p1109
I100
sS'Bloomers'
p1110
I4
sS'Tracy'
p1111
I624
sS'Virtuosity'
p1112
I221
sS'todas'
p1113
I2
sS'Passi'
p1114
I9
sS'Possession'
p1115
I59
sS'E'
I2824
sS'Windows'
p1116
I1
sS'Cider'
p1117
I711
sS'angefangen'
p1118
I1
sS'Hunt'
p1119
I1883
sS'Faster'
p1120
I59
sS'Drive'
p1121
I137
sS'Blvd'
p1122
I470
sS'Liaison'
p1123
I39
sS'Senses'
p1124
I108
sS'nel'
p1125
I9
sS'Splendor'
p1126
I136
sS'Chariots'
p1127
I634
sS'Wu'
p1128
I1
sS'Triad'
p1129
I74
sS'Fausto'
p1130
I1
sS'Gardens'
p1131
I48
sS'Bless'
p1132
I60
sS'Madness'
p1133
I576
sS'for'
p1134
I7745
sS'Juction'
p1135
I60
sS'Color'
p1136
I1004
sS'Win'
p1137
I2
sS'Mission'
p1138
I3866
sS'Cienie'
p1139
I1
sS'Parapluies'
p1140
I117
sS'Limelight'
p1141
I30
sS'Substitute'
p1142
I141
sS"Friend's"
p1143
I820
sS'Endearment'
p1144
I530
sS'Seule'
p1145
I17
sS'So'
p1146
I951
sS'Chicken'
p1147
I1329
sS'Starman'
p1148
I865
sS'Runaway'
p1149
I986
sS'Nights'
p1150
I1718
sS'Velvet'
p1151
I780
sS"d'Antonin"
p1152
I10
sS"Prizzi's"
p1153
I545
sS'Pont'
p1154
I70
sS'Tango'
p1155
I188
sS'Dundee'
p1156
I1326
sS'Cup'
p1157
I672
sS'Deconstructing'
p1158
I284
sS'Huck'
p1159
I68
sS'Timecop'
p1160
I436
sS'klein'
p1161
I1
sS'Elephant'
p1162
I457
sS'Cyrano'
p1163
I363
sS'Indiana'
p1164
I2755
sS'chair'
p1165
I18
sS'Gets'
p1166
I1424
sS'Conflict'
p1167
I122
sS'Outfield'
p1168
I247
sS'1948'
p1169
I1781
sS'1949'
p1170
I985
sS'Identificazione'
p1171
I2
sS'1942'
p1172
I3313
sS'1943'
p1173
I624
sS'1940'
p1174
I4431
sS'1941'
p1175
I3442
sS'1946'
p1176
I2533
sS'1947'
p1177
I985
sS'1944'
p1178
I2476
sS'1945'
p1179
I931
sS'Broadcast'
p1180
I789
sS'Qusur'
p1181
I1
sS'Amantes'
p1182
I48
sS'Das'
p1183
I1004
sS'Day'
p1184
I11806
sS'Present'
p1185
I1059
sS'Mankind'
p1186
I27
sS'Grill'
p1187
I156
sS'Wanda'
p1188
I1326
sS'Anything'
p1189
I958
sS'Battling'
p1190
I10
sS'Character'
p1191
I44
sS'Paralyzing'
p1192
I2
sS'1993'
p1193
I46317
sS'Flawless'
p1194
I110
sS'Shiloh'
p1195
I37
sS'Volunteers'
p1196
I141
sS'Where'
p1197
I647
sS'Romper'
p1198
I83
sS'Jersey'
p1199
I18
sS'Vampires'
p1200
I173
sS'Barrels'
p1201
I625
sS'Rand'
p1202
I8
sS'Parker'
p1203
I58
sS'Tap'
p1204
I1118
sS'Swept'
p1205
I111
sS'Just'
p1206
I129
sS'Danger'
p1207
I1059
sS'Afraid'
p1208
I297
sS'Clause'
p1209
I641
sS'Battleship'
p1210
I234
sS'Habit'
p1211
I202
sS'Potemkin'
p1212
I234
sS'Idolmaker'
p1213
I28
sS'Hoodlum'
p1214
I75
sS"Ulee's"
p1215
I266
sS'Fidelity'
p1216
I1373
sS'Tao'
p1217
I208
sS'George'
p1218
I688
sS'ville'
p1219
I1
sS'Rex'
p1220
I34
sS'Antonia'
p1221
I89
sS'Squanto'
p1222
I15
sS'Under'
p1223
I2183
sS'Matewan'
p1224
I177
sS'Braddock'
p1225
I81
sS'Nova'
p1226
I35
sS'Romance'
p1227
I959
sS'Opus'
p1228
I541
sS'Spellbound'
p1229
I206
sS'Shakespeare'
p1230
I2369
sS'Rich'
p1231
I215
sS'Reilly'
p1232
I88
sS'Jane'
p1233
I862
sS'Swingers'
p1234
I786
sS"Wayne's"
p1235
I1553
sS'Rides'
p1236
I249
sS'Rider'
p1237
I797
sS'Red'
p1238
I4866
sS'Look'
p1239
I11
sS'Head'
p1240
I36
sS'dei'
p1241
I105
sS"Cookie's"
p1242
I235
sS'Scout'
p1243
I68
sS'Public'
p1244
I7
sS'Heat'
p1245
I1792
sS'Hear'
p1246
I50
sS'Innocence'
p1247
I321
sS'Alone'
p1248
I1175
sS'True'
p1249
I2928
sS'Caraboo'
p1250
I62
sS'Fort'
p1251
I21
sS'Me'
p1252
I6792
sS'Forever'
p1253
I1254
sS'Ma'
p1254
I251
sS'Mc'
p1255
I798
sS'Age'
p1256
I308
sS'Fingerprints'
p1257
I50
sS'Mi'
p1258
I466
sS'Benny'
p1259
I482
sS'Annihilation'
p1260
I134
sS'Kicked'
p1261
I5
sS'Pest'
p1262
I64
sS'Arachnophobia'
p1263
I1367
sS'Mr'
p1264
I3641
sS'Narayama'
p1265
I54
sS'Badman'
p1266
I51
sS'Many-Splendored'
p1267
I50
sS'My'
p1268
I7732
sS'Bonzai'
p1269
I611
sS'Dean'
p1270
I3
sS'Fischer'
p1271
I720
sS'Reservoir'
p1272
I1259
sS'Mister'
p1273
I421
sS'Crimes'
p1274
I539
sS'Near'
p1275
I148
sS'Dead'
p1276
I9386
sS'Sleeping'
p1277
I1184
sS'Slipper'
p1278
I30
sS'Born'
p1279
I975
sS'Daylight'
p1280
I204
sS'Seed'
p1281
I127
sS'Pornographique'
p1282
I39
sS'Cheerleader'
p1283
I184
sS'Dear'
p1284
I135
sS'Poltergeist'
p1285
I1089
sS'Ghosts'
p1286
I162
sS'Maine'
p1287
I8
sS'Utomlyonnye'
p1288
I123
sS'Said'
p1289
I52
sS'Burglar'
p1290
I88
sS'Matrix'
p1291
I2590
sS'ciel'
p1292
I8
sS'Justice'
p1293
I241
sS"It's"
p1294
I818
sS'Angry'
p1295
I616
sS'Flyers'
p1296
I97
sS'When'
p1297
I2550
sS'Corruptor'
p1298
I156
sS"Hale's"
p1299
I156
sS'Creepshow'
p1300
I551
sS'Enough'
p1301
I862
sS'Communion'
p1302
I148
sS'1st'
p1303
I40
sS'Jerky'
p1304
I66
sS'Mermaid'
p1305
I1035
sS'wang'
p1306
I50
sS'Specialist'
p1307
I153
sS'Cupboard'
p1308
I357
sS'August'
p1309
I15
sS'Graveyard'
p1310
I79
sS'Gossip'
p1311
I82
sS'Vision'
p1312
I59
sS'Dies'
p1313
I862
sS'Scorta'
p1314
I1
sS'Mostro'
p1315
I35
sS'by'
p1316
I3570
sS'Tiger'
p1317
I106
sS'Caddyshack'
p1318
I967
sS'Overdrive'
p1319
I147
sS"Mummy's"
p1320
I113
sS'Varsity'
p1321
I266
sS'Fierce'
p1322
I168
sS'Awake'
p1323
I44
sS'Phantasm'
p1324
I740
sS'Motel'
p1325
I1
sS'Those'
p1326
I9
sS'Endless'
p1327
I180
sS'Shaft'
p1328
I672
sS'October'
p1329
I2240
sS'Roxbury'
p1330
I144
sS'Sleepaway'
p1331
I30
sS'F'
I976
sS'Opera'
p1332
I112
sS'Southeast'
p1333
I31
sS'Weapon'
p1334
I4373
sS'Solas'
p1335
I21
sS'Orlando'
p1336
I114
sS'Eve'
p1337
I548
sS'Bed'
p1338
I120
sS'chocolate'
p1339
I833
sS'Tree'
p1340
I23
sS'Ashes'
p1341
I229
sS"m'aiment"
p1342
I9
sS'Goofy'
p1343
I168
sS'Time'
p1344
I3057
sS'Snowriders'
p1345
I2
sS'Apocalypse'
p1346
I1176
sS'Bram'
p1347
I672
sS'Valentino'
p1348
I49
sS'Harlem'
p1349
I42
sS'Klute'
p1350
I302
sS'Family'
p1351
I1853
sS'Jimmy'
p1352
I29
sS'Affliction'
p1353
I198
sS'Midsummer'
p1354
I415
sS'Pacific'
p1355
I760
sS'Bath'
p1356
I15
sS'Down'
p1357
I2239
sS'Lies'
p1358
I2916
sS"Logan's"
p1359
I626
sS'mile'
p1360
I21
sS'Bats'
p1361
I67
sS'Pret-A-Porter'
p1362
I127
sS"Pee-wee's"
p1363
I861
sS'Our'
p1364
I291
sS'Beyrouth'
p1365
I10
sS'Pail'
p1366
I32
sS'Children'
p1367
I1455
sS'Out'
p1368
I3976
sS"Jupiter's"
p1369
I12
sS'Polio'
p1370
I2
sS'BAS'
p1371
I183
sS'Federal'
p1372
I8
sS'Roma'
p1373
I2
sS'Cotton'
p1374
I4
sS'Cougar'
p1375
I23
sS'Score'
p1376
I44
sS'Encino'
p1377
I293
sS'Spanking'
p1378
I175
sS'Jingle'
p1379
I222
sS'Mis'
p1380
I483
sS'Chinese'
p1381
I37
sS'Crooklyn'
p1382
I119
sS'Happened'
p1383
I649
sS'Chasers'
p1384
I45
sS'Damned'
p1385
I527
sS'Temps'
p1386
I30
sS'Terms'
p1387
I530
sS'Jerk'
p1388
I573
sS'Missing'
p1389
I376
sS"Fathers'"
p1390
I88
sS'Bitter'
p1391
I57
sS'Who'
p1392
I5148
sS'Buckaroo'
p1393
I611
sS'1'
I1662
sS'Oasis'
p1394
I2
sS"Jumpin'"
p1395
I374
sS'Bullets'
p1396
I462
sS'Rebel'
p1397
I402
sS'Quatermass'
p1398
I107
sS'H'
I1172
sS'Withnail'
p1399
I72
sS'Their'
p1400
I1324
sS'Devil'
p1401
I563
sS'Flirt'
p1402
I38
sS'Violence'
p1403
I54
sS'Tank'
p1404
I358
sS'Meets'
p1405
I82
sS'Always'
p1406
I440
sS'Outlaw'
p1407
I388
sS'Pompatus'
p1408
I33
sS'Ramirez'
p1409
I2
sS'Ugly'
p1410
I1032
sS'inseglet'
p1411
I299
sS"Freddy's"
p1412
I489
sS'Mosquito'
p1413
I466
sS'Disturbing'
p1414
I161
sS'Smile'
p1415
I20
sS'j'
I18
sS'Powers'
p1416
I2639
sS'Lulu'
p1417
I22
sS'View'
p1418
I885
sS'ni-sen'
p1419
I143
sS'Shoes'
p1420
I128
sS'Burning'
p1421
I106
sS'Monkey'
p1422
I355
sS'Ensangrentada'
p1423
I2
sS'Moll'
p1424
I89
sS'nous'
p1425
I21
sS'Ship'
p1426
I20
sS'Mole'
p1427
I58
sS'se'
p1428
I1
sS'Sheep'
p1429
I192
sS'Mississippi'
p1430
I162
sS'Hana-bi'
p1431
I36
sS'Wrath'
p1432
I1969
sS'Hunting'
p1433
I1548
sS'Bootmen'
p1434
I9
sS'Ruthless'
p1435
I475
sS'Ropes'
p1436
I14
sS'Breaking'
p1437
I787
sS'Jar'
p1438
I1
sS'Nighthawks'
p1439
I190
sS'Tashunga'
p1440
I1
sS'Jam'
p1441
I563
sS'Dragonheart'
p1442
I612
sS'White'
p1443
I2971
sS'cole'
p1444
I18
sS'Sliver'
p1445
I169
sS'Kama'
p1446
I81
sS"Killer's"
p1447
I32
sS'Jury'
p1448
I107
sS'Proc'
p1449
I51
sS'Rules'
p1450
I1131
sS'Dallas'
p1451
I167
sS'Rain'
p1452
I2332
sS'Flier'
p1453
I47
sS'Zola'
p1454
I21
sS'Inheritors'
p1455
I2
sS'World'
p1456
I5318
sS'Journals'
p1457
I8
sS'Grace'
p1458
I255
sS'Wait'
p1459
I651
sS'Buck'
p1460
I124
sS'Sister'
p1461
I1094
sS'Cable'
p1462
I385
sS'Riefenstahl'
p1463
I62
sS'Shy'
p1464
I46
sS'Threesome'
p1465
I178
sS'Fall'
p1466
I917
sS'Mariachi'
p1467
I483
sS'Maximum'
p1468
I201
sS'Romy'
p1469
I755
sS'1955'
p1470
I3511
sS'1954'
p1471
I4657
sS'1957'
p1472
I3352
sS'1956'
p1473
I2865
sS'1951'
p1474
I3869
sS'1950'
p1475
I2590
sS'1953'
p1476
I3172
sS'1952'
p1477
I1597
sS'Lonesome'
p1478
I23
sS'1959'
p1479
I4809
sS'1958'
p1480
I4810
sS'Saucers'
p1481
I71
sS'Rounders'
p1482
I345
sS'Marlene'
p1483
I12
sS'Insider'
p1484
I884
sS'Simple'
p1485
I1455
sS'Skip'
p1486
I300
sS'tere'
p1487
I2
sS'Striking'
p1488
I129
sS'France'
p1489
I5
sS'Gravity'
p1490
I3
sS'Yellow'
p1491
I431
sS'Watcher'
p1492
I94
sS'Enchanted'
p1493
I147
sS'Mile'
p1494
I1222
sS'Simply'
p1495
I115
sS'Lucie'
p1496
I6
sS'Suicides'
p1497
I328
sS'Milo'
p1498
I166
sS'Bitch'
p1499
I1
sS'Jackal'
p1500
I337
sS'Milk'
p1501
I228
sS'Homme'
p1502
I91
sS'Finzi-Contini'
p1503
I200
sS'el'
p1504
I1
sS'en'
p1505
I229
sS'Slate'
p1506
I63
sS'Endurance'
p1507
I14
sS'Lotto'
p1508
I1
sS'Cries'
p1509
I70
sS'Live'
p1510
I567
sS'Xinghua'
p1511
I7
sS'et'
p1512
I260
sS'Learned'
p1513
I1367
sS'Dragons'
p1514
I66
sS'Celebration'
p1515
I117
sS'Glenda'
p1516
I53
sS'Moonraker'
p1517
I652
sS'Elizabeth'
p1518
I938
sS'rculo'
p1519
I48
sS'Joy'
p1520
I474
sS'Masque'
p1521
I63
sS'Welcome'
p1522
I573
sS'Hudsucker'
p1523
I599
sS'Manchurian'
p1524
I765
sS'Journey'
p1525
I567
sS'Mifune'
p1526
I45
sS'Ghostbusters'
p1527
I2746
sS'Key'
p1528
I461
sS'Multiplicity'
p1529
I239
sS'Grumpier'
p1530
I478
sS'Saturn'
p1531
I133
sS'Conte'
p1532
I47
sS'Stone'
p1533
I1638
sS'Ferox'
p1534
I1
sS'Chasing'
p1535
I966
sS'Wishmaster'
p1536
I128
sS'G'
I627
sS'Bondage'
p1537
I58
sS'Nude'
p1538
I54
sS'Jude'
p1539
I50
sS'20'
p1540
I714
sS'Fille'
p1541
I87
sS'Judy'
p1542
I28
sS'Stand'
p1543
I2156
sS'Broadway'
p1544
I489
sS'Mixed'
p1545
I80
sS'Violenza'
p1546
I2
sS'Foreign'
p1547
I95
sS'Hairspray'
p1548
I445
sS"Isn't"
p1549
I37
sS'Misdemeanors'
p1550
I460
sS'Winterbourne'
p1551
I121
sS'Robert'
p1552
I179
sS'Walking'
p1553
I1004
sS'Education'
p1554
I23
sS'Spiders'
p1555
I4
sS'Asphalt'
p1556
I151
sS'Being'
p1557
I3127
sS'Money'
p1558
I1705
sS'Dime'
p1559
I15
sS'Guerre'
p1560
I316
sS'Boca'
p1561
I1
sS'Apt'
p1562
I187
sS'Sign'
p1563
I175
sS'Erin'
p1564
I1315
sS'Promise'
p1565
I26
sS'Touch'
p1566
I551
sS'Sinbad'
p1567
I515
sS'Falkens'
p1568
I1
sS'Ballou'
p1569
I280
sS'Out-of-Towners'
p1570
I199
sS'Brazil'
p1571
I1117
sS'liebster'
p1572
I35
sS'Giant'
p1573
I1425
sS'Suicide'
p1574
I222
sS'Tilt'
p1575
I7
sS'There'
p1576
I733
sS'Detail'
p1577
I172
sS'Prancer'
p1578
I43
sS'Till'
p1579
I914
sS'Yao'
p1580
I74
sS'Dellamorte'
p1581
I101
sS'Black'
p1582
I4777
sS'Films'
p1583
I157
sS'Citizen'
p1584
I1335
sS'Medicine'
p1585
I263
sS'Stood'
p1586
I559
sS'Hollywood'
p1587
I305
sS'Ever'
p1588
I640
sS'Pirate'
p1589
I73
sS'Firestarter'
p1590
I267
sS'Creature'
p1591
I497
sS'Tokyo'
p1592
I2
sS'Relic'
p1593
I237
sS'Aladdin'
p1594
I1560
sS'Bordello'
p1595
I151
sS'Candyman'
p1596
I355
sS'Des'
p1597
I2
sS'citt'
p1598
I5
sS'Diva'
p1599
I257
sS'Intentions'
p1600
I559
sS'Completely'
p1601
I451
sS'2'
I16856
sS'Defying'
p1602
I3
sS'Date'
p1603
I261
sS'Haunted'
p1604
I537
sS'Offerings'
p1605
I53
sS'Business'
p1606
I856
sS'Dove'
p1607
I218
sS'Thoughts'
p1608
I74
sS'Tarantula'
p1609
I62
sS'Keeping'
p1610
I489
sS'Fortune'
p1611
I420
sS'Omen'
p1612
I635
sS'Mozart'
p1613
I1
sS'Nadine'
p1614
I55
sS"Astronaut's"
p1615
I328
sS'Miracle'
p1616
I595
sS'Naked'
p1617
I1644
sS'Samurai'
p1618
I1013
sS'Client'
p1619
I515
sS'Jail'
p1620
I12
sS'Dirty'
p1621
I1631
sS'Enterprise'
p1622
I43
sS'Beverly'
p1623
I1007
sS'Kurt'
p1624
I72
sS'Manny'
p1625
I31
sS'Torso'
p1626
I2
sS'Supercop'
p1627
I273
sS"sull'oceano"
p1628
I20
sS'rables'
p1629
I483
sS'Spawn'
p1630
I475
sS'Battlefield'
p1631
I342
sS'Seven'
p1632
I4241
sS'12'
p1633
I616
sS'Love'
p1634
I8036
sS'17'
p1635
I394
sS'Ciao'
p1636
I21
sS'Titan'
p1637
I535
sS'contre'
p1638
I5
sS'Howling'
p1639
I278
sS'Canyon'
p1640
I346
sS'r'
I165
sS'Fool'
p1641
I394
sS"'Til"
p1642
I52
sS'Handbook'
p1643
I79
sS'Bread'
p1644
I67
sS'Basquiat'
p1645
I127
sS'Madeline'
p1646
I116
sS'and'
p1647
I37337
sS'Steel'
p1648
I475
sS'Bloodline'
p1649
I216
sS'Tora'
p1650
I582
sS'Mutiny'
p1651
I225
sS'Cherry'
p1652
I32
sS'1927'
p1653
I252
sS'Hit'
p1654
I189
sS'Philadelphia'
p1655
I1143
sS'13th'
p1656
I2022
sS'Field'
p1657
I768
sS'Saludos'
p1658
I15
sS'Call'
p1659
I453
sS'Calm'
p1660
I497
sS'ans'
p1661
I136
sS'Mail'
p1662
I841
sS'Fools'
p1663
I319
sS'Valley'
p1664
I393
sS'Eketball'
p1665
I183
sS'Idaho'
p1666
I331
sS'Soy'
p1667
I5
sS'Do'
p1668
I2245
sS'Sails'
p1669
I20
sS'Viv'
p1670
I21
sS'Funeral'
p1671
I1264
sS'De'
p1672
I395
sS'Speechless'
p1673
I140
sS'Blame'
p1674
I201
sS'Famous'
p1675
I994
sS'di'
p1676
I388
sS'jardin'
p1677
I4
sS'Faculty'
p1678
I513
sS'Maltese'
p1679
I1043
sS'Turbulence'
p1680
I51
sS'Precinct'
p1681
I98
sS'Bronco'
p1682
I176
sS'Dr'
p1683
I2385
sS'Hall'
p1684
I1726
sS'200'
p1685
I181
sS'Assassins'
p1686
I126
sS'Off'
p1687
I3779
sS'Rocketeer'
p1688
I736
sS'Getting'
p1689
I41
sS'Geronimo'
p1690
I87
sS'Drop'
p1691
I1042
sS'Preacher'
p1692
I3
sS'Has'
p1693
I188
sS'Strawberry'
p1694
I61
sS'Mimic'
p1695
I348
sS'Wong'
p1696
I203
sS'East-West'
p1697
I103
sS'Gandhi'
p1698
I671
sS'Stiff'
p1699
I13
sS'Cabe'
p1700
I208
sS'Rough'
p1701
I33
sS'Daytrippers'
p1702
I124
sS'Trust'
p1703
I90
sS'mireniamu'
p1704
I143
sS'Frankie'
p1705
I16
sS'Sexual'
p1706
I26
sS'Nemo'
p1707
I22
sS'Glory'
p1708
I1406
sS'Radio'
p1709
I298
sS'Audrey'
p1710
I50
sS'Believers'
p1711
I102
sS'Rang-e'
p1712
I65
sS'Venezia'
p1713
I14
sS'Deceit'
p1714
I1
sS'D2'
p1715
I193
sS'D3'
p1716
I142
sS'Fifth'
p1717
I1377
sS'Web'
p1718
I497
sS'Candidate'
p1719
I952
sS'Incredible'
p1720
I325
sS'Barry'
p1721
I169
sS'Assassination'
p1722
I27
sS'Sky'
p1723
I767
sS'Dial'
p1724
I379
sS'Graduate'
p1725
I1261
sS'Wes'
p1726
I251
sS'Willy'
p1727
I1776
sS'Gate'
p1728
I433
sS'Incredibly'
p1729
I85
sS'Across'
p1730
I619
sS'We'
p1731
I1405
sS'Woman'
p1732
I2485
sS"Billy's"
p1733
I77
sS"Pyromaniac's"
p1734
I29
sS'Kansas'
p1735
I42
sS'Postino'
p1736
I501
sS'Lyndon'
p1737
I169
sS'42'
p1738
I88
sS'Lian'
p1739
I67
sS'Restoration'
p1740
I166
sS'Diary'
p1741
I51
sS'Solar'
p1742
I20
sS'Arlington'
p1743
I634
sS'Fishes'
p1744
I40
sS'Fisher'
p1745
I945
sS'Rekopis'
p1746
I11
sS'Earthquake'
p1747
I119
sS'Lashou'
p1748
I327
sS'Tarzan'
p1749
I497
sS'Louis'
p1750
I189
sS'Sleepless'
p1751
I986
sS'Tolls'
p1752
I98
sS'Fighting'
p1753
I101
sS'Trick'
p1754
I93
sS'Turn'
p1755
I257
sS'Bronenosets'
p1756
I234
sS"Fool's"
p1757
I116
sS'Frighteners'
p1758
I338
sS'Largo'
p1759
I461
sS'Boondock'
p1760
I92
sS'Conformista'
p1761
I57
sS'Lantern'
p1762
I277
sS'Gillian'
p1763
I108
sS'Villa'
p1764
I29
sS'Angel'
p1765
I722
sS"General's"
p1766
I691
sS'Winnie'
p1767
I221
sS'Ready'
p1768
I193
sS'Bell'
p1769
I329
sS'Smashing'
p1770
I2
sS'Hurlyburly'
p1771
I99
sS'Alley'
p1772
I6
sS'Kong'
p1773
I1259
sS'Denise'
p1774
I20
sS'Mirage'
p1775
I2
sS'Gamma'
p1776
I55
sS'Corner'
p1777
I315
sS'Lesson'
p1778
I37
sS'Hound'
p1779
I287
sS'Collector'
p1780
I640
sS'nette'
p1781
I5
sS'cioccolata'
p1782
I67
sS'Aweigh'
p1783
I103
sS'Clueless'
p1784
I1362
sS'Roxanne'
p1785
I23
sS'Colonel'
p1786
I20
sS'Saboteur'
p1787
I89
sS'Rings'
p1788
I593
sS'Crew'
p1789
I40
sS'1920'
p1790
I24
sS'1921'
p1791
I62
sS'1922'
p1792
I238
sS'1923'
p1793
I17
sS'Hamptons'
p1794
I21
sS'1925'
p1795
I561
sS'1926'
p1796
I472
sS'Grand'
p1797
I1155
sS'Screwed'
p1798
I60
sS'1929'
p1799
I43
sS'Winslow'
p1800
I146
sS'Bits'
p1801
I4
sS'Amants'
p1802
I44
sS"Elmo's"
p1803
I352
sS'Shopping'
p1804
I6
sS'That'
p1805
I2160
sS'Loose'
p1806
I49
sS'Designated'
p1807
I7
sS'Gnome-Mobile'
p1808
I22
sS'Oscar'
p1809
I182
sS'3'
I3300
sS'Retour'
p1810
I158
sS'Frenzy'
p1811
I95
sS'Virtue'
p1812
I44
sS'Recall'
p1813
I1996
sS'it'
p1814
I70
sS'Fauntleroy'
p1815
I23
sS'Than'
p1816
I239
sS'24'
p1817
I5
sS'Saragossa'
p1818
I11
sS'Bible'
p1819
I2
sS'Natural'
p1820
I1251
sS'Target'
p1821
I217
sS'Johnson'
p1822
I222
sS'Firewalker'
p1823
I42
sS'Sense'
p1824
I3806
sS'fauves'
p1825
I8
sS'Overnight'
p1826
I20
sS'Baby-Sitters'
p1827
I42
sS'Marco'
p1828
I386
sS'Fiendish'
p1829
I43
sS'Ooze'
p1830
I251
sS'Were'
p1831
I1371
sS'Haine'
p1832
I44
sS'Addams'
p1833
I1177
sS'Demonio'
p1834
I4
sS'Lured'
p1835
I1
sS'X-M'
p1836
I41
sS'Monte'
p1837
I101
sS'Rosencrantz'
p1838
I325
sS'Cinema'
p1839
I615
sS'C'
I72
sS'Kane'
p1840
I1116
sS'Primary'
p1841
I353
sS'Month'
p1842
I32
sS'Fitzcarraldo'
p1843
I98
sS'Negotiator'
p1844
I799
sS'Santini'
p1845
I195
sS'Through'
p1846
I639
sS'Escape'
p1847
I3043
sS'Arsenic'
p1848
I672
sS'Adrenalin'
p1849
I11
sS'Monty'
p1850
I3724
sS'ji'
p1851
I42
sS'Ransom'
p1852
I564
sS'Decline'
p1853
I109
sS'Guess'
p1854
I350
sS'Death'
p1855
I1841
sS"Jacob's"
p1856
I667
sS'Guest'
p1857
I23
sS'Englishman'
p1858
I350
sS'sauvage'
p1859
I98
sS'wansui'
p1860
I1
sS'Decision'
p1861
I416
sS'Jr'
p1862
I151
sS'60'
p1863
I584
sS'Apes'
p1864
I2660
sS'3000'
p1865
I456
sS'66'
p1866
I354
sS'Surf'
p1867
I20
sS'mare'
p1868
I97
sS'Beauty'
p1869
I5364
sS'Bus'
p1870
I81
sS'Ladder'
p1871
I667
sS'Knew'
p1872
I559
sS'Rendez-vous'
p1873
I14
sS'But'
p1874
I796
sS'Floyd'
p1875
I387
sS'Excess'
p1876
I88
sS'coups'
p1877
I187
sS'Princess'
p1878
I3028
sS'Claiborne'
p1879
I349
sS'Lawn'
p1880
I26
sS'Pointe'
p1881
I1136
sS'Pleasures'
p1882
I3
sS'400'
p1883
I187
sS'Madame'
p1884
I77
sS'Set'
p1885
I93
sS'Jungle'
p1886
I1856
sS'Comedy'
p1887
I147
sS'Dazed'
p1888
I643
sS'Action'
p1889
I1673
sS'Vincent'
p1890
I37
sS'Round'
p1891
I9
sS'Pajama'
p1892
I93
sS'Ferne'
p1893
I66
sS'Minors'
p1894
I142
sS"Antonia's"
p1895
I89
sS'Sib'
p1896
I9
sS'Vermeers'
p1897
I27
sS'Attack'
p1898
I206
sS'Commander'
p1899
I175
sS'Gojira'
p1900
I701
sS'Holmes'
p1901
I379
sS'Crusade'
p1902
I1628
sS'Splash'
p1903
I1163
sS'Laurel'
p1904
I81
sS'Reine'
p1905
I86
sS'Open'
p1906
I63
sS"Trippin'"
p1907
I4
sS'Goldfinger'
p1908
I897
sS'Feng'
p1909
I7
sS'Basketball'
p1910
I300
sS'chat'
p1911
I45
sS'Knock'
p1912
I27
sS'Carrington'
p1913
I70
sS'Dick'
p1914
I1201
sS'Besieged'
p1915
I41
sS'Factory'
p1916
I1313
sS'Vessels'
p1917
I1
sS'Couch'
p1918
I24
sS'Better'
p1919
I637
sS'Otis'
p1920
I166
sS'Wood'
p1921
I1041
sS'Yue'
p1922
I7
sS'Calling'
p1923
I1
sS'soir'
p1924
I1
sS'Flintstones'
p1925
I395
sS'Hidden'
p1926
I284
sS'Sefid'
p1927
I52
sS'pas'
p1928
I5
sS"Clara's"
p1929
I66
sS'Cedars'
p1930
I398
sS'Chucky'
p1931
I147
sS'Notre'
p1932
I390
sS'Nell'
p1933
I215
sS'Torn'
p1934
I58
sS's'
I205
sS'Sliding'
p1935
I464
sS'Repo'
p1936
I751
sS'tous'
p1937
I5
sS'Witch'
p1938
I1819
sS'Blood'
p1939
I1862
sS'Licence'
p1940
I385
sS'Waves'
p1941
I267
sS'Blew'
p1942
I381
sS'Carol'
p1943
I456
sS'Hendersons'
p1944
I298
sS'Bloom'
p1945
I43
sS"King's"
p1946
I119
sS'Aphrodite'
p1947
I431
sS'Amado'
p1948
I1
sS'Oxygen'
p1949
I6
sS'Polar'
p1950
I48
sS'I'
I10177
sS'Deceiver'
p1951
I22
sS'Clear'
p1952
I1118
sS'Soul'
p1953
I278
sS'Barcelona'
p1954
I208
sS'IV'
p1955
I4987
sS'II'
p1956
I12314
sS'Soup'
p1957
I594
sS'Dinosaur'
p1958
I345
sS'Anywhere'
p1959
I161
sS'Heavyweights'
p1960
I30
sS'Iron'
p1961
I1710
sS'Beaver'
p1962
I43
sS'Maya'
p1963
I59
sS'Myers'
p1964
I439
sS'Dream'
p1965
I1539
sS'ID'
p1966
I1730
sS'Houseguest'
p1967
I138
sS'Drunken'
p1968
I133
sS"Day's"
p1969
I518
sS'Guildenstern'
p1970
I325
sS'Own'
p1971
I1623
sS'Says'
p1972
I274
sS'Is'
p1973
I3962
sS'no'
p1974
I748
sS'Mamma'
p1975
I2
sS'It'
p1976
I5379
sS'Permanent'
p1977
I76
sS'Slam'
p1978
I25
sS'Graffiti'
p1979
I990
sS'Il'
p1980
I723
sS'Io'
p1981
I21
sS'In'
p1982
I3497
sS'Klezmer'
p1983
I2
sS'Legal'
p1984
I1
sS'If'
p1985
I122
sS'Pink'
p1986
I1824
sS"You're"
p1987
I166
sS'Rays'
p1988
I55
sS'Number'
p1989
I1
sS'Service'
p1990
I353
sS'Horse'
p1991
I214
sS'Ways'
p1992
I2
sS'Bonheur'
p1993
I6
sS'Boxing'
p1994
I166
sS'Crossfire'
p1995
I35
sS'Smithee'
p1996
I17
sS'Pump'
p1997
I317
sS'Dieu'
p1998
I28
sS'Liang'
p1999
I65
sS'Mowgli'
p2000
I6
sS'n'
I7
sS'shentan'
p2001
I327
sS'Might'
p2002
I45
sS'Reckless'
p2003
I15
sS'Christ'
p2004
I254
sS'Mullen'
p2005
I433
sS'Runnings'
p2006
I392
sS'Would'
p2007
I310
sS'Hideaway'
p2008
I45
sS'Travolti'
p2009
I97
sS'rose'
p2010
I201
sS'Spot'
p2011
I46
sS'Robinson'
p2012
I276
sS"Draughtsman's"
p2013
I29
sS'4'
I3111
sS'Separation'
p2014
I318
sS'Instinct'
p2015
I1117
sS'Ninja'
p2016
I1207
sS'Rhapsody'
p2017
I40
sS'Mark'
p2018
I105
sS'Garbage'
p2019
I32
sS'Change'
p2020
I94
sS'Proxy'
p2021
I599
sS'Enemy'
p2022
I988
sS'Shaggy'
p2023
I269
sS'Mona'
p2024
I357
sS'Sand'
p2025
I1
sS'Island'
p2026
I881
sS'Camp'
p2027
I30
sS'Eclipse'
p2028
I30
sS'Rubies'
p2029
I25
sS'Nile'
p2030
I673
sS'Tale'
p2031
I531
sS'Aunt'
p2032
I13
sS'mon'
p2033
I236
sS'Liar'
p2034
I1450
sS'Mann'
p2035
I19
sS'Kozlowski'
p2036
I2
sS'Shop'
p2037
I1498
sS'Brave'
p2038
I50
sS'Shot'
p2039
I100
sS'Tron'
p2040
I970
sS'Show'
p2041
I4017
sS'Lovers'
p2042
I156
sS'Duets'
p2043
I106
sS'Pie'
p2044
I1402
sS'Pig'
p2045
I525
sS'Crackdown'
p2046
I48
sS'London'
p2047
I549
sS'Something'
p2048
I2214
sS'Valiant'
p2049
I7
sS'Fellas'
p2050
I1657
sS'Operation'
p2051
I449
sS'Pit'
p2052
I594
sS'Morte'
p2053
I2
sS'Before'
p2054
I1285
sS'Stinks'
p2055
I20
sS'Arnaud'
p2056
I20
sS'Radioland'
p2057
I67
sS'Deux'
p2058
I573
sS'Indochine'
p2059
I160
sS'Army'
p2060
I1096
sS'West'
p2061
I2357
sS'Ned'
p2062
I703
sS'Arms'
p2063
I56
sS'Dreamscape'
p2064
I338
sS'Engel'
p2065
I100
sS'Master'
p2066
I846
sS'Kui'
p2067
I1
sS'Mars'
p2068
I2016
sS'Terror'
p2069
I54
sS'New'
p2070
I5543
sS'Net'
p2071
I569
sS'Pocus'
p2072
I183
sS'Mary'
p2073
I2769
sS'Lughnasa'
p2074
I44
sS'Breakdown'
p2075
I707
sS'Mouse'
p2076
I362
sS'Hello'
p2077
I51
sS'Bully'
p2078
I12
sS'Hangmen'
p2079
I2
sS'Gadget'
p2080
I373
sS'Men'
p2081
I9034
sS'Rites'
p2082
I4
sS'Veronique'
p2083
I129
sS'Met'
p2084
I1569
sS'Double'
p2085
I1674
sS'Hammer'
p2086
I23
sS'Ruby'
p2087
I117
sS"Bernie's"
p2088
I373
sS'Chapter'
p2089
I400
sS'Temptress'
p2090
I7
sS'Stranger'
p2091
I133
sS'Turbo'
p2092
I44
sS'Wooden'
p2093
I82
sS'Diario'
p2094
I28
sS'Jennifer'
p2095
I116
sS'1933'
p2096
I1605
sS'1932'
p2097
I372
sS'1931'
p2098
I1273
sS'1930'
p2099
I382
sS'1937'
p2100
I1419
sS'1936'
p2101
I628
sS'1935'
p2102
I945
sS'1934'
p2103
I1044
sS'1939'
p2104
I3784
sS'1938'
p2105
I1277
sS'Earp'
p2106
I270
sS'Playing'
p2107
I216
sS'Ears'
p2108
I77
sS'Goya'
p2109
I48
sS'on'
p2110
I9018
sS'Revolution'
p2111
I53
sS'Rambo'
p2112
I702
sS'Snakes'
p2113
I5
sS'Trial'
p2114
I148
sS'of'
p2115
I78846
sS'Scared'
p2116
I259
sS'Relax'
p2117
I12
sS'Alphaville'
p2118
I64
sS'Fearless'
p2119
I245
sS'Ape'
p2120
I12
sS'Thelma'
p2121
I1417
sS'Autumn'
p2122
I194
sS'Crocodile'
p2123
I1326
sS'Paper'
p2124
I501
sS'Terminator'
p2125
I4747
sS'Stalker'
p2126
I52
sS'Firestorm'
p2127
I77
sS'Visiteurs'
p2128
I33
sS'Message'
p2129
I177
sS'Kissed'
p2130
I637
sS'or'
p2131
I2026
sS'Woolf'
p2132
I297
sS'Story'
p2133
I10481
sS'Heads'
p2134
I145
sS'No'
p2135
I1380
sS'Jawbreaker'
p2136
I119
sS'Memories'
p2137
I121
sS'Away'
p2138
I1528
sS'Boogie'
p2139
I1135
sS'Bowl'
p2140
I24
sS'Vanishes'
p2141
I199
sS'Sleepover'
p2142
I1
sS'Marigolds'
p2143
I55
sS'Degrees'
p2144
I315
sS'Joan'
p2145
I341
sS'Storm'
p2146
I1520
sS'Dunston'
p2147
I76
sS'Ado'
p2148
I667
sS"Farmer's"
p2149
I3
sS'Week'
p2150
I18
sS'Cyberspace'
p2151
I97
sS'Harold'
p2152
I697
sS'Gabbeh'
p2153
I14
sS'Infinity'
p2154
I9
sS'Maiden'
p2155
I108
sS'Opposite'
p2156
I608
sS'Nest'
p2157
I1725
sS'Hotel'
p2158
I122
sS'Unhook'
p2159
I11
sS'Brooklyn'
p2160
I89
sS'Los'
p2161
I48
sS'Rumble'
p2162
I636
sS'Bachelor'
p2163
I612
sS'Birthday'
p2164
I108
sS'Letter'
p2165
I256
sS"Python's"
p2166
I926
sS'Sabrina'
p2167
I823
sS'Uncut'
p2168
I1269
sS'Kuba'
p2169
I5
sS'Singer'
p2170
I909
sS'Version'
p2171
I34
sS'Remember'
p2172
I796
sS'Bette'
p2173
I47
sS"Night's"
p2174
I415
sS'Saints'
p2175
I92
sS'Doctors'
p2176
I79
sS'Blazing'
p2177
I1119
sS'Coma'
p2178
I144
sS'Bicentennial'
p2179
I383
sS"Eve's"
p2180
I179
sS'Sansar'
p2181
I56
sS'Mort'
p2182
I4
sS'Bowfinger'
p2183
I935
sS'Harry'
p2184
I2508
sS'Small'
p2185
I756
sS'Beneath'
p2186
I881
sS'with'
p2187
I6912
sS'Original'
p2188
I153
sS'Even'
p2189
I120
sS'Teena'
p2190
I49
sS'Heavy'
p2191
I692
sS'Poorer'
p2192
I62
sS'Century'
p2193
I6
sS'House'
p2194
I3610
sS'Debutante'
p2195
I11
sS'Guardian'
p2196
I38
sS'Cauldron'
p2197
I200
sS'Bug'
p2198
I242
sS'Seul'
p2199
I5
sS'Society'
p2200
I1153
sS'Twin'
p2201
I335
sS'Joseph'
p2202
I13
sS'Bud'
p2203
I181
sS'Close'
p2204
I2313
sS'Blues'
p2205
I2104
sS'Rebecca'
p2206
I386
sS'Crisis'
p2207
I20
sS'Boat'
p2208
I1050
sS'Retro'
p2209
I6
sS'Chauffeur'
p2210
I66
sS'Delivery'
p2211
I20
sS'Comes'
p2212
I213
sS'Convoyeurs'
p2213
I3
sS'Uzala'
p2214
I92
sS'USA'
p2215
I3
sS'Space'
p2216
I5069
sS'Calendar'
p2217
I24
sS'Cinderella'
p2218
I993
sS'Bewegte'
p2219
I19
sS'al'
p2220
I31
sS'ao'
p2221
I7
sS'an'
p2222
I996
sS'How'
p2223
I1933
sS'Hot'
p2224
I1764
sS'Coney'
p2225
I4
sS'Kokaku'
p2226
I314
sS'at'
p2227
I2843
sS'Gorgeous'
p2228
I383
sS'Strike'
p2229
I301
sS'Brokedown'
p2230
I171
sS'3-D'
p2231
I253
sS'Wicked'
p2232
I213
sS'Real'
p2233
I534
sS'Pallbearer'
p2234
I79
sS'Shorty'
p2235
I1356
sS'Dark'
p2236
I2326
sS'2001'
p2237
I1716
sS'5'
I567
sS'Amadeus'
p2238
I1382
sS'Savior'
p2239
I4
sS'Chopping'
p2240
I44
sS'Law'
p2241
I352
sS'Lady'
p2242
I1900
sS'Kidnapped'
p2243
I14
sS'Rear'
p2244
I1050
sS'Las'
p2245
I1281
sS'Wide'
p2246
I1039
sS'Great'
p2247
I2335
sS'Jaguar'
p2248
I20
sS'Tights'
p2249
I374
sS'Stupids'
p2250
I55
sS'Westworld'
p2251
I636
sS'Element'
p2252
I1377
sS'Practical'
p2253
I236
sS'Daughters'
p2254
I15
sS'Shift'
p2255
I373
sS'Half'
p2256
I300
sS'Kull'
p2257
I109
sS'Sensibility'
p2258
I835
sS'Face'
p2259
I2010
sS'13'
p2260
I1349
sS'Birdcage'
p2261
I682
sS'Major'
p2262
I282
sS'Cabaret'
p2263
I454
sS'Myth'
p2264
I50
sS'Majesty'
p2265
I265
sS'Runner'
p2266
I1800
sS'Executive'
p2267
I456
sS'Bian'
p2268
I67
sS'Gypsy'
p2269
I122
sS'Street'
p2270
I2297
sS'Lyric'
p2271
I40
sS"Shaft's"
p2272
I44
sS'Pitch'
p2273
I552
sS'Melvin'
p2274
I108
sS'Magnolias'
p2275
I408
sS'Greatest'
p2276
I61
sS'Nadja'
p2277
I26
sS'Van'
p2278
I63
sS'Winter'
p2279
I22
sS'Newsies'
p2280
I93
sS'Noon'
p2281
I1266
sS'Weiter'
p2282
I66
sS'Damage'
p2283
I2
sS'Moon'
p2284
I1173
sS'Station'
p2285
I215
sS'Parents'
p2286
I862
sS'Take'
p2287
I679
sS'Professional'
p2288
I1846
sS'Bigalow'
p2289
I308
sS'Richer'
p2290
I62
sS'Fin'
p2291
I7
sS"Brown's"
p2292
I3
sS'Sorcerer'
p2293
I203
sS'Brown'
p2294
I1254
sS'Vietnam'
p2295
I1082
sS'Skipped'
p2296
I2
sS'Thought'
p2297
I18
sS'Nelly'
p2298
I20
sS'Urbania'
p2299
I52
sS'Evil'
p2300
I1737
sS'Seats'
p2301
I1
sS'to'
p2302
I16539
sS'Wonka'
p2303
I1313
sS'waipo'
p2304
I74
sS'Fingers'
p2305
I4
sS'Resurrection'
p2306
I780
sS'Zed'
p2307
I29
sS'te'
p2308
I98
sS'Eat'
p2309
I346
sS'Ridgemont'
p2310
I886
sS'libertad'
p2311
I13
sS'Training'
p2312
I196
sS'Jim'
p2313
I296
sS'Creeps'
p2314
I65
sS'Jing'
p2315
I44
sS'Capricorn'
p2316
I8
sS'Angus'
p2317
I145
sS'Basement'
p2318
I11
sS"Smilla's"
p2319
I265
sS'Alaska'
p2320
I330
sS"d'Agosto"
p2321
I97
sS'Goodbye'
p2322
I429
sS'Conversation'
p2323
I453
sS'bestia'
p2324
I25
sS'Wolf'
p2325
I725
sS'Urbia'
p2326
I82
sS'Zachariah'
p2327
I2
sS"I'm"
p2328
I264
sS'Sebastian'
p2329
I33
sS'Greenwich'
p2330
I95
sS'Punishment'
p2331
I33
sS'yu'
p2332
I69
sS'Outlaws'
p2333
I2
sS'peor'
p2334
I2
sS"Don't"
p2335
I1601
sS'Super'
p2336
I350
sS'Midnight'
p2337
I2427
sS'Trekkies'
p2338
I224
sS'sang'
p2339
I45
sS'Babysitter'
p2340
I64
sS'Kill'
p2341
I2100
sS'Napoleon'
p2342
I2
sS'Monument'
p2343
I11
sS'Lethal'
p2344
I4109
sS'Soldiers'
p2345
I445
sS'Breakfast'
p2346
I2269
sS'Godfrey'
p2347
I281
sS'Carlo'
p2348
I101
sS'Chase'
p2349
I319
sS'Impact'
p2350
I897
sS"Gentleman's"
p2351
I91
sS'Six-String'
p2352
I71
sS'Klumps'
p2353
I248
sS'Willow'
p2354
I802
sS'Denver'
p2355
I166
sS'Shane'
p2356
I305
sS'Lengua'
p2357
I69
sS'Only'
p2358
I616
sS'Repossessed'
p2359
I53
sS'Easy'
p2360
I982
sS'Vienna'
p2361
I1
sS'Circle'
p2362
I435
sS'East'
p2363
I567
sS'Giants'
p2364
I54
sS'Machine'
p2365
I5
sS'Bye'
p2366
I116
sS"Kelly's"
p2367
I375
sS'Amigo'
p2368
I1
sS'Elstree'
p2369
I1
sS'Singles'
p2370
I429
sS'Spindell'
p2371
I2
sS'Slingshot'
p2372
I23
sS'Colors'
p2373
I1132
sS'onna'
p2374
I77
sS'Nowhere'
p2375
I31
sS'Whisperer'
p2376
I210
sS'Cape'
p2377
I1048
sS'Mice'
p2378
I328
sS'Pecker'
p2379
I316
sS'Bleak'
p2380
I13
sS'Arena'
p2381
I1
sS'Dad'
p2382
I38
sS'Rush'
p2383
I1179
sS'Short'
p2384
I458
sS'Clouds'
p2385
I219
sS'Gift'
p2386
I35
sS'Susan'
p2387
I840
sS'Charlie'
p2388
I23
sS'K'
I23
sS'Metropolis'
p2389
I388
sS'Tar'
p2390
I6
sS'Arthur'
p2391
I534
sS'Contact'
p2392
I2692
sS'Trainspotting'
p2393
I751
sS'Amos'
p2394
I81
sS'Morphin'
p2395
I93
sS'Whole'
p2396
I652
sS'Pulp'
p2397
I2171
sS'Silence'
p2398
I2600
sS'Oficial'
p2399
I38
sS'Mifunes'
p2400
I45
sS'Parent'
p2401
I526
sS'Confessional'
p2402
I8
sS'Wanna'
p2403
I4
sS'los'
p2404
I69
sS'Importance'
p2405
I10
sS'Periscope'
p2406
I133
sS'stelle'
p2407
I14
sS'Cowgirls'
p2408
I81
sS'Beans'
p2409
I8
sS'Airplane'
p2410
I2289
sS'Forrest'
p2411
I2194
sS'pianista'
p2412
I20
sS'Victor'
p2413
I434
sS'Toy'
p2414
I3662
sS'Brockovich'
p2415
I1315
sS'Darkness'
p2416
I1396
sS'Maschera'
p2417
I4
sS'vie'
p2418
I201
sS'Things'
p2419
I2053
sS'Top'
p2420
I1355
sS'Venice'
p2421
I4
sS'Mikey'
p2422
I64
sS'Acres'
p2423
I50
sS'Providence'
p2424
I163
sS'Yol'
p2425
I1
sS'Alvarez'
p2426
I28
sS'Too'
p2427
I605
sS'Animal'
p2428
I1207
sS'Tom'
p2429
I401
sS'Arguing'
p2430
I11
sS'Leggenda'
p2431
I20
sS'Pollyanna'
p2432
I136
sS'Dolls'
p2433
I260
sS'Feind'
p2434
I35
sS'Crash'
p2435
I141
sS'Jonah'
p2436
I24
sS'Cherbourg'
p2437
I234
sS'Labyrinth'
p2438
I554
sS'Suburbans'
p2439
I6
sS'Corn'
p2440
I372
sS'Balkan'
p2441
I11
sS'dozhdot'
p2442
I28
sS'Peking'
p2443
I6
sS'Lives'
p2444
I644
sS'Boiler'
p2445
I590
sS'Coming'
p2446
I547
sS'Wally'
p2447
I46
sS'Picasso'
p2448
I36
sS'Cabiria'
p2449
I222
sS'Mickey'
p2450
I448
sS'Engagement'
p2451
I420
sS'Redemption'
p2452
I2227
sS'Limits'
p2453
I44
sS'haben'
p2454
I1
sS'Awakenings'
p2455
I680
sS'Mask'
p2456
I2851
sS'St'
p2457
I578
sS'Wyatt'
p2458
I270
sS'Tierra'
p2459
I13
sS'American'
p2460
I11090
sS'En'
p2461
I10
sS'Roger'
p2462
I2597
sS"'Ha"
p2463
I52
sS'Patton'
p2464
I645
sS'Found'
p2465
I64
sS'Fairy'
p2466
I88
sS"Murphy's"
p2467
I269
sS'Searchers'
p2468
I245
sS'Ripe'
p2469
I7
sS"Porky's"
p2470
I602
sS'SS'
p2471
I25
sS'Gods'
p2472
I1401
sS'der'
p2473
I198
sS'des'
p2474
I599
sS'Devlin'
p2475
I52
sS'Commandments'
p2476
I15
sS'Hamlet'
p2477
I996
sS'Horrors'
p2478
I1292
sS'Insects'
p2479
I194
sS'Inn'
p2480
I283
sS'Martian'
p2481
I123
sS'del'
p2482
I68
sS'Watership'
p2483
I305
sS'v'
I141
sS'Tigerland'
p2484
I54
sS'Tomorrow'
p2485
I862
sS'Phantom'
p2486
I2485
sS'Funny'
p2487
I453
sS'Different'
p2488
I461
sS'Thirty-Two'
p2489
I157
sS'Unstrung'
p2490
I85
sS'Aiqing'
p2491
I1
sS"Lampoon's"
p2492
I49
sS'Mulholland'
p2493
I275
sS'morti'
p2494
I5
sS'Microcosmos'
p2495
I188
sS'Innocent'
p2496
I10
sS'Duffel'
p2497
I145
sS'Cause'
p2498
I516
sS'Joey'
p2499
I72
sS'Walked'
p2500
I30
sS'Roula'
p2501
I1
sS'Hillbillies'
p2502
I156
sS'Mediterraneo'
p2503
I91
sS'Frances'
p2504
I135
sS'Alabama'
p2505
I45
sS'Bulletproof'
p2506
I117
sS'Gromit'
p2507
I438
sS'Cure'
p2508
I22
sS'Spare'
p2509
I15
sS'Toxie'
p2510
I53
sS'Birch'
p2511
I202
sS'Clerks'
p2512
I1412
sS"O'Gill"
p2513
I158
sS'Shadow'
p2514
I467
sS'Titus'
p2515
I163
sS'Dreams'
p2516
I1902
sS'Desire'
p2517
I725
sS'Ninjas'
p2518
I47
sS'Muppets'
p2519
I573
sS'Don'
p2520
I386
sS'Human'
p2521
I140
sS'Dom'
p2522
I10
sS"Shakespeare's"
p2523
I479
sS'Grifters'
p2524
I885
sS'Sleepers'
p2525
I374
sS'List'
p2526
I2304
sS'Dog'
p2527
I3072
sS'Adventures'
p2528
I2570
sS'Benji'
p2529
I234
sS"Nobody's"
p2530
I233
sS'Candy'
p2531
I264
sS'Relative'
p2532
I3
sS'Daisy'
p2533
I652
sS'Swiss'
p2534
I276
sS'Lisa'
p2535
I167
sS'Fandango'
p2536
I66
sS'Garden'
p2537
I1113
sS'a'
I20293
sS'Flies'
p2538
I353
sS'Everyone'
p2539
I287
sS'Solaris'
p2540
I143
sS'Played'
p2541
I171
sS'Sweet'
p2542
I809
sS'Deer'
p2543
I700
sS'Deep'
p2544
I2155
sS'Drifter'
p2545
I317
sS'Player'
p2546
I1062
sS'File'
p2547
I159
sS'Sixth'
p2548
I2478
sS'Peacemaker'
p2549
I395
sS'Truman'
p2550
I1005
sS'Armed'
p2551
I130
sS'Marathon'
p2552
I400
sS'JFK'
p2553
I756
sS'What'
p2554
I2935
sS'Nashville'
p2555
I325
sS"Ed's"
p2556
I8
sS'Bottom'
p2557
I229
sS'Purple'
p2558
I954
sS'Nervous'
p2559
I353
sS"Gulliver's"
p2560
I117
sS'Jedi'
p2561
I2883
sS'Solari'
p2562
I2
sS'Schizopolis'
p2563
I49
sS'Tenue'
p2564
I1
sS'Forces'
p2565
I235
sS'Diamonds'
p2566
I9
sS"Holland's"
p2567
I541
sS'Brunswick'
p2568
I1
sS'Illusion'
p2569
I165
sS'Texas'
p2570
I858
sS'Benjamin'
p2571
I407
sS'25'
p2572
I24
sS'Full'
p2573
I2461
sS'March'
p2574
I81
sS'Irma'
p2575
I93
sS'Temptation'
p2576
I307
sS'28'
p2577
I505
sS'Strikes'
p2578
I2994
sS'Nightwatch'
p2579
I77
sS'Mononoke'
p2580
I690
sS'Quest'
p2581
I2344
sS"Pete's"
p2582
I323
sS'Losing'
p2583
I74
sS'Cleo'
p2584
I18
sS'Raining'
p2585
I2
sS'Sound'
p2586
I882
sS'Reaction'
p2587
I237
sS'Bat'
p2588
I9
sS'Castaway'
p2589
I2
sS'Badlands'
p2590
I241
sS'Interiors'
p2591
I83
sS'Michael'
p2592
I1001
sS'L'
I3624
sS'Lightning'
p2593
I62
sS'Bag'
p2594
I145
sS'Bad'
p2595
I1900
sS'Drunks'
p2596
I34
sS'Jumanji'
p2597
I701
sS'37th'
p2598
I108
sS'Coyote'
p2599
I201
sS'Hornblower'
p2600
I105
sS'Dugan'
p2601
I96
sS'Senior'
p2602
I49
sS'Hime'
p2603
I345
sS'Mating'
p2604
I17
sS'Pillow'
p2605
I138
sS'Incognito'
p2606
I11
sS'Guilty'
p2607
I47
sS'Wisdom'
p2608
I62
sS'Saving'
p2609
I2839
sS'Lace'
p2610
I672
sS'Ran'
p2611
I357
sS'Kika'
p2612
I14
sS'Aliens'
p2613
I1820
sS'Newton'
p2614
I119
sS'Pride'
p2615
I51
sS'Raw'
p2616
I14
sS'Pole'
p2617
I1
sS'Tease'
p2618
I33
sS'Tetsuo'
p2619
I23
sS'Thanks'
p2620
I203
sS'Donkey-Boy'
p2621
I12
sS'Travels'
p2622
I278
sS'Suna'
p2623
I77
sS'Horseman'
p2624
I52
sS'Sharks'
p2625
I209
sS'1600'
p2626
I281
sS'End'
p2627
I1612
sS'Grandview'
p2628
I6
sS'Zone'
p2629
I552
sS'Rose'
p2630
I895
sS'Strictly'
p2631
I676
sS'Combo'
p2632
I6
sS'Gentleman'
p2633
I130
sS'Butcher'
p2634
I155
sS'1-900'
p2635
I2
sS'Sunshine'
p2636
I87
sS'Waiting'
p2637
I636
sS'Jefferson'
p2638
I38
sS'Gigi'
p2639
I187
sS'Sabbath'
p2640
I21
sS'Crying'
p2641
I1229
sS'Chushingura'
p2642
I20
sS'Criminal'
p2643
I14
sS'Twelfth'
p2644
I152
sS'Team'
p2645
I48
sS'Ross'
p2646
I571
sS'Picture'
p2647
I2584
sS'Baruta'
p2648
I11
sS'Drugstore'
p2649
I416
sS'Tigers'
p2650
I101
sS'Sousatzka'
p2651
I59
sS'Yukinojo'
p2652
I7
sS'Secretaries'
p2653
I1
sS'Renaissance'
p2654
I248
sS'Eight'
p2655
I204
sS'7'
I41
sS'Frankenstein'
p2656
I2548
sS'Railroad'
p2657
I37
sS'Doom'
p2658
I1188
sS'Class'
p2659
I303
sS'Cool'
p2660
I1351
sS'Town'
p2661
I274
sS'Bittersweet'
p2662
I1
sS'Hour'
p2663
I629
sS'Mute'
p2664
I29
sS'Leaving'
p2665
I980
sS'Nina'
p2666
I21
sS'Tigrero'
p2667
I4
sS'Mall'
p2668
I44
sS'Maude'
p2669
I697
sS'Nine'
p2670
I1050
sS'Une'
p2671
I39
sS'Del'
p2672
I4
sS'Flipper'
p2673
I62
sS'Male'
p2674
I311
sS'Eraserhead'
p2675
I199
sS'Pelham'
p2676
I276
sS'Bossa'
p2677
I35
sS'El'
p2678
I763
sS'Fantastic'
p2679
I447
sS'Mutant'
p2680
I973
sS'Behavior'
p2681
I161
sS'People'
p2682
I1884
sS'Bleeding'
p2683
I117
sS'Ed'
p2684
I959
sS'Carpool'
p2685
I24
sS'but'
p2686
I7
sS'Airport'
p2687
I379
sS'Bros'
p2688
I350
sS'Years'
p2689
I647
sS'Past'
p2690
I466
sS'Heroin'
p2691
I6
sS'Sour'
p2692
I11
sS'w'
I11
sS'Blank'
p2693
I1232
sS'Passage'
p2694
I17
sS'Ravenous'
p2695
I171
sS'Screen'
p2696
I76
sS'Contempt'
p2697
I26
sS'Reluctant'
p2698
I11
sS'Doubt'
p2699
I233
sS'ronique'
p2700
I129
sS'Panther'
p2701
I413
sS'Remains'
p2702
I469
sS'Apostle'
p2703
I471
sS'Hugo'
p2704
I20
sS'Castle'
p2705
I74
sS'Effect'
p2706
I415
sS'Maps'
p2707
I30
sS'Fields'
p2708
I732
sS'Indian'
p2709
I433
sS'Santitos'
p2710
I3
sS'Goes'
p2711
I789
sS'Gingerbread'
p2712
I95
sS'me'
p2713
I41
sS'Gilbert'
p2714
I693
sS'Persuasion'
p2715
I179
sS'Stir'
p2716
I487
sS'Cimarron'
p2717
I29
sS'Eating'
p2718
I693
sS'Jeremiah'
p2719
I222
sS'Nature'
p2720
I624
sS'Shagged'
p2721
I1434
sS'Becomes'
p2722
I339
sS'Rescuers'
p2723
I488
sS'Frost'
p2724
I205
sS'Sez'
p2725
I4
sS'Tumbleweeds'
p2726
I66
sS'Slums'
p2727
I267
sS'Larry'
p2728
I456
sS'Concubine'
p2729
I254
sS'Delta'
p2730
I65
sS'neng'
p2731
I52
sS'Rudy'
p2732
I476
sS'187'
p2733
I55
sS'Cheetah'
p2734
I1
sS'Gilda'
p2735
I107
sS'Deterrence'
p2736
I48
sS'Desert'
p2737
I547
sS'para'
p2738
I772
sS'Free'
p2739
I542
sS'Dangerous'
p2740
I1150
sS"Mike's"
p2741
I28
sS'Fries'
p2742
I146
sS'Pork'
p2743
I107
sS'Curdled'
p2744
I20
sS'boca'
p2745
I1
sS'Slayer'
p2746
I512
sS'Ventura'
p2747
I1155
sS'Amargo'
p2748
I11
sS'Roan'
p2749
I300
sS'Long'
p2750
I790
sS'Roam'
p2751
I71
sS'zahlt'
p2752
I3
sS'Problem'
p2753
I259
sS'Fried'
p2754
I898
sS'kos'
p2755
I7
sS'Road'
p2756
I2446
sS'Taxi'
p2757
I1240
sS'Hunger'
p2758
I160
sS'Selena'
p2759
I162
sS'Kramer'
p2760
I904
sS'dans'
p2761
I1
sS'Monkeys'
p2762
I1511
sS'Waterworld'
p2763
I651
sS'Reunion'
p2764
I775
sS'Fleiss'
p2765
I50
sS'Slowly'
p2766
I1
sS'Alexander'
p2767
I128
sS"Heinlein's"
p2768
I179
sS'Gladiator'
p2769
I1924
sS'Northwest'
p2770
I1315
sS'Replacement'
p2771
I319
sS'Oliver'
p2772
I357
sS'Postman'
p2773
I793
sS'Peach'
p2774
I525
sS'Henrietta'
p2775
I17
sS'God'
p2776
I915
sS'Conquered'
p2777
I28
sS'Peace'
p2778
I335
sS'Father'
p2779
I948
sS'Bodyguard'
p2780
I864
sS'Pumpkinhead'
p2781
I112
sS'Se7en'
p2782
I1137
sS'Late'
p2783
I11
sS'Nutty'
p2784
I1418
sS'Window'
p2785
I1115
sS'Bushiko'
p2786
I27
sS'Transformers'
p2787
I231
sS'Crude'
p2788
I2
sS'Got'
p2789
I1843
sS'Troopers'
p2790
I1163
sS"God's"
p2791
I6
sS'Odessa'
p2792
I132
sS'Arrival'
p2793
I417
sS'Rushmore'
p2794
I1220
sS'Sutra'
p2795
I81
sS'jour'
p2796
I180
sS'Power'
p2797
I523
sS'Club'
p2798
I4134
sS'Ref'
p2799
I346
sS'Price'
p2800
I28
sS'viventi'
p2801
I5
sS'Predator'
p2802
I1940
sS'Clue'
p2803
I443
sS'liv'
p2804
I330
sS'Othello'
p2805
I141
sS"Fishin'"
p2806
I49
sS'Kim'
p2807
I9
sS'Foot'
p2808
I453
sS'Stalingrad'
p2809
I33
sS'Prefontaine'
p2810
I71
sS"'77"
p2811
I79
sS'With'
p2812
I1595
sS"'Em"
p2813
I58
sS'Kid'
p2814
I4016
sS'Lightfoot'
p2815
I190
sS'Myself'
p2816
I752
sS'Episode'
p2817
I11114
sS'Lucinda'
p2818
I182
sS'Attacks'
p2819
I1074
sS'Shrunk'
p2820
I1045
sS'M'
I1909
sS'Hawaii'
p2821
I121
sS'Kentucky'
p2822
I305
sS'Fresa'
p2823
I61
sS'Callej'
p2824
I7
sS'Common'
p2825
I110
sS'Grail'
p2826
I1599
sS'Ringers'
p2827
I189
sS'Fresh'
p2828
I93
sS'The'
p2829
I235933
sS'Groove'
p2830
I191
sS'Called'
p2831
I1327
sS'Joyriders'
p2832
I1
sS'Unhold'
p2833
I4
sS'Bridge'
p2834
I1127
sS'Julien'
p2835
I12
sS'Hackers'
p2836
I321
sS'Egypt'
p2837
I587
sS'kj'
p2838
I2
sS'Bamboozled'
p2839
I96
sS'Extreme'
p2840
I121
sS'qin'
p2841
I44
sS'Sticky'
p2842
I4
sS'Bruce'
p2843
I41
sS'Convento'
p2844
I2
sS'Strangeland'
p2845
I15
sS'Armageddon'
p2846
I1110
sS'Saucer'
p2847
I11
sS'Speed'
p2848
I2018
sS'Juliet'
p2849
I835
sS'Perfect'
p2850
I1960
sS'Lola'
p2851
I2144
sS'Hak'
p2852
I66
sS'Filth'
p2853
I39
sS'Deadly'
p2854
I44
sS'Hillbillys'
p2855
I1
sS'Dolores'
p2856
I349
sS'Signals'
p2857
I372
sS'Poetic'
p2858
I42
sS'Candleshoe'
p2859
I54
sS'Hill'
p2860
I1756
sS'Fatal'
p2861
I969
sS'Hat'
p2862
I322
sS'Hav'
p2863
I6
sS'Jakob'
p2864
I118
sS'Amateur'
p2865
I47
sS'Baloo'
p2866
I6
sS'Tulsa'
p2867
I18
sS'Cujo'
p2868
I245
sS'Theodore'
p2869
I3
sS'Cook'
p2870
I198
sS'Rhyme'
p2871
I1
sS'Assault'
p2872
I98
sS'Dune'
p2873
I789
sS'Worst'
p2874
I2
sS'Traffic'
p2875
I14
sS"Razor's"
p2876
I77
sS'Starship'
p2877
I1163
sS'Arrest'
p2878
I50
sS'8'
I796
sS'Pooh'
p2879
I221
sS'Guys'
p2880
I353
sS'Pool'
p2881
I20
sS'Spice'
p2882
I190
sS'Desperately'
p2883
I840
sS'Patriot'
p2884
I2292
sS'Cave'
p2885
I231
sS'Magic'
p2886
I321
sS'Flashdance'
p2887
I362
sS'Wife'
p2888
I880
sS'Odds'
p2889
I133
sS'Favorite'
p2890
I467
sS'Batch'
p2891
I372
sS'U-571'
p2892
I908
sS'Segno'
p2893
I3
sS'Crystal'
p2894
I710
sS'While'
p2895
I784
sS'Code'
p2896
I212
sS'Prick'
p2897
I77
sS'Hearts'
p2898
I334
sS'Flamingos'
p2899
I158
sS'Margot'
p2900
I172
sS'Access'
p2901
I7
sS'Freak'
p2902
I28
sS'Help'
p2903
I291
sS'Fletch'
p2904
I837
sS'Pauline'
p2905
I25
sS'Auntie'
p2906
I274
sS'Lightness'
p2907
I266
sS'Random'
p2908
I250
sS'Held'
p2909
I4
sS'Female'
p2910
I470
sS'Abominable'
p2911
I9
sS'Hell'
p2912
I154
sS'Blonde'
p2913
I24
sS'Cullochs'
p2914
I1
sS'Navarone'
p2915
I701
sS'Chairman'
p2916
I24
sS'Clan'
p2917
I231
sS'Uninvited'
p2918
I1
sS'For'
p2919
I2057
sS'Nick'
p2920
I229
sS'Fox'
p2921
I287
sS'Snatchers'
p2922
I897
sS'Laramie'
p2923
I33
sS'Lees'
p2924
I13
sS'Roses'
p2925
I120
sS'Tail'
p2926
I605
sS'Fog'
p2927
I170
sS'sec'
p2928
I2
sS'Hamam'
p2929
I15
sS'Emma'
p2930
I501
sS'Foo'
p2931
I203
sS'Mame'
p2932
I274
sS'Badkonake'
p2933
I52
sS'Rescue'
p2934
I65
sS'Staircase'
p2935
I43
sS'Song'
p2936
I272
sS'Zorro'
p2937
I1088
sS'Blair'
p2938
I1237
sS'Park'
p2939
I5578
sS'Bedroom'
p2940
I57
sS'Panchali'
p2941
I47
sS'Peggy'
p2942
I506
sS'Evening'
p2943
I90
sS'Part'
p2944
I8268
sS'Lauderdale'
p2945
I3
sS'Freedom'
p2946
I35
sS'Reazione'
p2947
I3
sS'Isaiah'
p2948
I63
sS'Guffman'
p2949
I462
sS'Viva'
p2950
I128
sS'King'
p2951
I5671
sS'Kind'
p2952
I1687
sS'Waltzes'
p2953
I1
sS'Fighter'
p2954
I105
sS'Sans'
p2955
I20
sS"Gridlock'd"
p2956
I49
sS'cherche'
p2957
I45
sS'sidste'
p2958
I45
sS'Candles'
p2959
I719
sS'Could'
p2960
I444
sS'Toys'
p2961
I440
sS'Browning'
p2962
I34
sS'Against'
p2963
I133
sS'Quiet'
p2964
I501
sS'Carnosaur'
p2965
I120
sS'Annie'
p2966
I1334
sS'African'
p2967
I1057
sS'Honor'
p2968
I578
sS'Costello'
p2969
I206
sS'Detective'
p2970
I897
sS'Teenage'
p2971
I973
sS'Jason'
p2972
I211
sS'Regret'
p2973
I4
sS'Jaws'
p2974
I2277
sS'Fish'
p2975
I1615
sS'Hard'
p2976
I5148
sS"Bueller's"
p2977
I1473
sS'Cecil'
p2978
I69
sS'Steve'
p2979
I208
sS'Leather'
p2980
I2
sS'Wilde'
p2981
I85
sS'X-Files'
p2982
I996
sS'Fist'
p2983
I2
sS'Pagemaster'
p2984
I135
sS'Repulsion'
p2985
I69
sS'Kaspar'
p2986
I28
sS"Citizen's"
p2987
I17
sS'Todo'
p2988
I394
sS'Company'
p2989
I491
sS'Priscilla'
p2990
I469
sS'Superman'
p2991
I2911
sS'1919'
p2992
I45
sS'Rosetta'
p2993
I35
sS'beli'
p2994
I23
sS'Karakter'
p2995
I44
sS'Braveheart'
p2996
I2443
sS'English'
p2997
I995
sS'Symphonie'
p2998
I238
sS'Lounge'
p2999
I98
sS'Lights'
p3000
I271
sS'Clyde'
p3001
I686
sS'Nuke'
p3002
I58
sS'Stars'
p3003
I42
sS'Way'
p3004
I2136
sS'Peanuts'
p3005
I3
sS'Above'
p3006
I91
sS'Victoria'
p3007
I434
sS'Was'
p3008
I203
sS'War'
p3009
I1097
sS'Cabin'
p3010
I187
sS'pr'
p3011
I154
sS'Play'
p3012
I539
sS'Breaker'
p3013
I360
sS'Murderer'
p3014
I682
sS'Brothers'
p3015
I2007
sS"Toulon's"
p3016
I92
sS'Shallow'
p3017
I273
sS'Sprung'
p3018
I6
sS'Cement'
p3019
I21
sS'Auch'
p3020
I1
sS'Trail'
p3021
I29
sS'Train'
p3022
I1056
sS'California'
p3023
I13
sS'Plan'
p3024
I1092
sS'Confess'
p3025
I17
sS'Movie'
p3026
I4361
sS'Heroes'
p3027
I520
sS'Butterfly'
p3028
I130
sS'Women'
p3029
I815
sS'Daughter'
p3030
I764
sS'Spitfire'
p3031
I156
sS'Aparajito'
p3032
I23
sS'Prophets'
p3033
I12
sS'Firecracker'
p3034
I96
sS'Casino'
p3035
I682
sS'gar'
p3036
I2
sS'Giardino'
p3037
I100
sS'N'
I62
sS'Koyaanisqatsi'
p3038
I182
sS'Angela'
p3039
I2
sS'Bewitched'
p3040
I5
sS'Rendezvous'
p3041
I14
sS"She's"
p3042
I937
sS'Wolves'
p3043
I1467
sS'Bluebeard'
p3044
I2
sS'xiong'
p3045
I244
sS'Supernova'
p3046
I161
sS'Testimone'
p3047
I9
sS'Old'
p3048
I2438
sS'Memoirs'
p3049
I225
sS'Carmen'
p3050
I35
sS'Taste'
p3051
I86
sS'Demon'
p3052
I166
sS'Champ'
p3053
I59
sS'Marked'
p3054
I127
sS'Ducks'
p3055
I696
sS'Feet'
p3056
I42
sS'Niagara'
p3057
I78
sS'Defending'
p3058
I446
sS'Cuts'
p3059
I301
sS'Cold'
p3060
I275
sS'Cole'
p3061
I33
sS'Miss'
p3062
I663
sS'Pane'
p3063
I67
sS'Creatures'
p3064
I645
sS'City'
p3065
I4255
sS'Bastard'
p3066
I63
sS'Bountiful'
p3067
I140
sS'Khan'
p3068
I1448
sS'Mummy'
p3069
I1262
sS'Commitments'
p3070
I558
sS'Paycock'
p3071
I1
sS'Dadetown'
p3072
I7
sS'Tin'
p3073
I1808
sS'Leuchter'
p3074
I124
sS'Dwarfs'
p3075
I764
sS'Huiti'
p3076
I12
sS'Eagles'
p3077
I265
sS'Proposal'
p3078
I217
sS"Schindler's"
p3079
I2304
sS'Stock'
p3080
I625
sS'Eyes'
p3081
I2621
sS'Rim'
p3082
I49
sS'Bouffe'
p3083
I50
sS'Mein'
p3084
I35
sS'Luke'
p3085
I930
sS'Masks'
p3086
I67
sS'Nation'
p3087
I504
sS'Cops'
p3088
I64
sS'One-eye'
p3089
I5
sS'Noughts'
p3090
I29
sS'Adventure'
p3091
I1796
sS'Bluff'
p3092
I74
sS'9'
I249
sS'Portiere'
p3093
I21
sS'shao'
p3094
I52
sS'Shine'
p3095
I548
sS'Faith'
p3096
I489
sS'About'
p3097
I6033
sS'Eraser'
p3098
I460
sS'8MM'
p3099
I272
sS'Dollhouse'
p3100
I500
sS'Stealing'
p3101
I169
sS'42nd'
p3102
I114
sS'Them'
p3103
I281
sS"Kenna's"
p3104
I58
sS'000'
p3105
I649
sS'Nancy'
p3106
I304
sS'Hellraiser'
p3107
I749
sS'Hype'
p3108
I134
sS'Flight'
p3109
I563
sS'Rooms'
p3110
I157
sS'Secreto'
p3111
I17
sS'Shrews'
p3112
I16
sS'Con'
p3113
I954
sS'Mnemonic'
p3114
I458
sS'Project'
p3115
I1448
sS'Named'
p3116
I483
sS'Carter'
p3117
I155
sS'Tall'
p3118
I37
sS'Akira'
p3119
I452
sS'Almost'
p3120
I1054
sS'Miller'
p3121
I208
sS'Below'
p3122
I81
sS'Iris'
p3123
I68
sS'Son'
p3124
I643
sS'Food'
p3125
I85
sS'Allnighter'
p3126
I7
sS'Weekend'
p3127
I496
sS'Stardust'
p3128
I121
sS'Ten'
p3129
I1
sS'y'
I75
sS'Girl'
p3130
I2493
sS"Cutter's"
p3131
I43
sS'Grande'
p3132
I215
sS'Living'
p3133
I1515
sS'Right'
p3134
I1531
sS'Takes'
p3135
I191
sS'Convent'
p3136
I2
sS'Ciociara'
p3137
I44
sS"O'"
p3138
I7
sS'1960'
p3139
I3542
sS'corrida'
p3140
I42
sS'Virginia'
p3141
I297
sS'Madre'
p3142
I847
sS'Wonderful'
p3143
I1070
sS'Suspicion'
p3144
I199
sS"We're"
p3145
I112
sS'Musketeers'
p3146
I529
sS'Echoes'
p3147
I487
sS'Blow-Out'
p3148
I50
sS'Hideous'
p3149
I70
sS'Thumb'
p3150
I25
sS'Files'
p3151
I692
sS'Distress'
p3152
I23
sS'Muscles'
p3153
I7
sS'Mariposas'
p3154
I69
sS'Theory'
p3155
I838
sS'Historia'
p3156
I38
sS'Fanatic'
p3157
I48
sS'Apur'
p3158
I56
sS'Chocolate'
p3159
I2281
sS'Kuuni'
p3160
I1
sS'Snake'
p3161
I495
sS"Majesty's"
p3162
I353
sS'Hands'
p3163
I327
sS'Front'
p3164
I268
sS'Chips'
p3165
I75
sS'Stepford'
p3166
I300
sS'Icon'
p3167
I34
sS"Peter's"
p3168
I118
sS'On'
p3169
I2056
sS"Shelley's"
p3170
I244
sS'Last'
p3171
I6447
sS'Longer'
p3172
I1269
sS'Mega'
p3173
I47
sS'Did'
p3174
I860
sS'Die'
p3175
I5411
sS'Married'
p3176
I1574
sS'Chinatown'
p3177
I1185
sS'Air'
p3178
I2607
sS'Aim'
p3179
I20
sS'Billy'
p3180
I531
sS'Cruel'
p3181
I559
sS'Seberg'
p3182
I8
sS'Betty'
p3183
I559
sS'Truth'
p3184
I945
sS'Came'
p3185
I543
sS'Flatliners'
p3186
I413
sS'Grumpy'
p3187
I809
sS'Geniuses'
p3188
I164
sS'Or'
p3189
I179
sS'NIMH'
p3190
I369
sS'paration'
p3191
I3
sS'd'
I11
sS'Reeds'
p3192
I51
sS'Genius'
p3193
I442
sS"Singin'"
p3194
I751
sS'Elmo'
p3195
I33
sS'Whatever'
p3196
I108
sS'Stinkers'
p3197
I1
sS'Spinal'
p3198
I1118
sS'Rising'
p3199
I873
sS'donna'
p3200
I2
sS'Sight'
p3201
I982
sS'Bones'
p3202
I39
sS'Fantastique'
p3203
I1
sS'Zerkalo'
p3204
I23
sS'Talk'
p3205
I204
sS'Liberty'
p3206
I155
sS'Nico'
p3207
I34
sS'Pred'
p3208
I28
sS'Butch'
p3209
I1419
sS'Little'
p3210
I5730
sS'Silent'
p3211
I240
sS'Dancing'
p3212
I731
sS'Scissorhands'
p3213
I1473
sS'Rawhead'
p3214
I31
sS'Striptease'
p3215
I298
sS'Plains'
p3216
I317
sS'Messenger'
p3217
I341
sS'Conformist'
p3218
I57
sS'Friend'
p3219
I47
sS'Dame'
p3220
I390
sS'Firm'
p3221
I824
sS'Macchie'
p3222
I2
sS'Insurrection'
p3223
I807
sS'Confidential'
p3224
I2288
sS'Fire'
p3225
I2858
sS'Frank'
p3226
I42
sS'Rage'
p3227
I129
sS"Sullivan's"
p3228
I161
sS'Bye-Bye'
p3229
I1
sS'Albino'
p3230
I94
sS'Maker'
p3231
I123
sS'Kicking'
p3232
I167
sS'Virus'
p3233
I189
sS'Limbo'
p3234
I88
sS'Knight'
p3235
I506
sS'Nothing'
p3236
I906
sS'ojos'
p3237
I62
sS'Apollo'
p3238
I1251
sS't'
I14
sS'Box'
p3239
I37
sS'Boy'
p3240
I1082
sS'Substance'
p3241
I6
sS'Liaisons'
p3242
I773
sS'Brady'
p3243
I607
sS'Cobb'
p3244
I67
sS"Dante's"
p3245
I321
sS'302'
p3246
I9
sS'Bill'
p3247
I41
sS'Khoda'
p3248
I65
sS'Antonin'
p3249
I10
sS'Times'
p3250
I1255
sS'bu'
p3251
I52
sS'Bulworth'
p3252
I664
sS'Command'
p3253
I17
sS'biciclette'
p3254
I252
sS"nell'azzurro"
p3255
I97
sS'Bilder'
p3256
I62
sS'Bob'
p3257
I1232
sS'Parasite'
p3258
I24
sS'Russia'
p3259
I771
sS'Attendent'
p3260
I3
sS'Comforts'
p3261
I274
sS'O'
I45
sS'Bars'
p3262
I14
sS'Square'
p3263
I50
sS'Picnic'
p3264
I248
sS'Hungarian'
p3265
I1
sS'Glenn'
p3266
I157
sS'Dress'
p3267
I379
sS'Rob'
p3268
I554
sS'Boni'
p3269
I5
sS'Gypsies'
p3270
I10
sS'Roy'
p3271
I554
sS'Lion'
p3272
I1121
sS'Barb'
p3273
I300
sS'Dumb'
p3274
I660
sS'libert'
p3275
I21
sS'Committed'
p3276
I35
sS'Pond'
p3277
I405
sS'Captain'
p3278
I105
sS'Bunch'
p3279
I682
sS'Knightriders'
p3280
I34
sS'Simon'
p3281
I206
sS'Follet'
p3282
I9
sS'Elm'
p3283
I1435
sS'Dates'
p3284
I139
sS'Sgt'
p3285
I140
sS'Young'
p3286
I3600
sS'Nuits'
p3287
I8
sS'Everything'
p3288
I490
sS'Terrorist'
p3289
I24
sS'Delirio'
p3290
I9
sS'Meteor'
p3291
I131
sS'Abbotts'
p3292
I131
sS'Abre'
p3293
I62
sS'Ruth'
p3294
I219
sS'Freaky'
p3295
I180
sS'Natty'
p3296
I154
sS'solntsem'
p3297
I123
sS'Abuelo'
p3298
I7
sS'Insomniac'
p3299
I30
sS'Normal'
p3300
I35
sS'Keys'
p3301
I18
sS'Shichinin'
p3302
I628
sS'long'
p3303
I66
sS"Where's"
p3304
I2
sS'Fell'
p3305
I85
sS'Longest'
p3306
I352
sS'Como'
p3307
I772
sS'Crypt'
p3308
I295
sS'Payback'
p3309
I773
sS'Smoking'
p3310
I627
sS'Wanted'
p3311
I317
sS'Come'
p3312
I380
sS'Airheads'
p3313
I245
sS'Tammy'
p3314
I82
sS'Fly'
p3315
I2347
sS'Pather'
p3316
I47
sS'Collar'
p3317
I56
sS'Tommy'
p3318
I621
sS'Cigarettes'
p3319
I181
sS'Jeckyll'
p3320
I3
sS'Moonlight'
p3321
I51
sS'U2'
p3322
I130
sS'Austin'
p3323
I2639
sS'Nekromantik'
p3324
I11
sS"I'll"
p3325
I73
sS'Squeeze'
p3326
I7
sS"Heaven's"
p3327
I48
sS'ke'
p3328
I51
sS'Office'
p3329
I885
sS'Mumford'
p3330
I277
sS'Buena'
p3331
I230
sS'Streets'
p3332
I7
sS'Africa'
p3333
I751
sS'Amazing'
p3334
I18
sS'Leon'
p3335
I923
sS'Rattle'
p3336
I130
sS'un'
p3337
I97
sS'Ziegfeld'
p3338
I36
sS'Cruise'
p3339
I402
sS'Name'
p3340
I673
sS'Fatigue'
p3341
I5
sS'Dwarf'
p3342
I4
sS'Papillon'
p3343
I325
sS'Underworld'
p3344
I1
sS'vous'
p3345
I154
sS'Notorious'
p3346
I445
sS'Malkovich'
p3347
I2241
sS'Cross'
p3348
I43
sS'Ice'
p3349
I519
sS'Terminal'
p3350
I137
sS'To'
p3351
I2735
sS'Outside'
p3352
I164
sS'Edward'
p3353
I1500
sS'Gloria'
p3354
I44
sS'Cosi'
p3355
I36
sS'Babes'
p3356
I162
sS'International'
p3357
I1205
sS'Sierra'
p3358
I453
sS'Sheik'
p3359
I14
sS'Manhattan'
p3360
I1571
sS'Nazis'
p3361
I20
sS'Map'
p3362
I51
sS'Murder'
p3363
I1968
sS'Thunderbolt'
p3364
I190
sS'Mat'
p3365
I134
sS'May'
p3366
I520
sS'Moonstruck'
p3367
I982
sS'Ceux'
p3368
I9
sS'Whispers'
p3369
I1
sS'Mac'
p3370
I58
sS'Mad'
p3371
I2996
sS'Student'
p3372
I2
sS'Governess'
p3373
I70
sS'Sisters'
p3374
I28
sS"Joe's"
p3375
I131
sS'Manon'
p3376
I440
sS'Artemisia'
p3377
I32
sS'Adam'
p3378
I20
sS'Man'
p3379
I17396
sS'Case'
p3380
I20
sS'compagnie'
p3381
I10
sS'Carried'
p3382
I7
sS'Metro'
p3383
I100
sS'Hitch-Hiker'
p3384
I18
sS'Raisin'
p3385
I143
sS'Et'
p3386
I28
sS'Chuck'
p3387
I121
sS'Shower'
p3388
I63
sS'Gambler'
p3389
I7
sS'Rosso'
p3390
I3
sS'Making'
p3391
I239
sS'Court'
p3392
I144
sS'Zui'
p3393
I133
sS'monie'
p3394
I24
sS'Acid'
p3395
I7
sS'e'
I232
sS'Blown'
p3396
I221
sS'Ai'
p3397
I42
sS'Loathing'
p3398
I298
sS'Malcolm'
p3399
I479
sS'Weddings'
p3400
I1233
sS'Am'
p3401
I5
sS'Al'
p3402
I16
sS'An'
p3403
I2563
sS'As'
p3404
I2848
sS'Flanders'
p3405
I97
sS'Kombat'
p3406
I445
sS'Village'
p3407
I475
sS'Blows'
p3408
I187
sS'dou'
p3409
I52
sS'Verdoux'
p3410
I40
sS'Sacrifice'
p3411
I52
sS'Mercury'
p3412
I264
sS'Supper'
p3413
I121
sS'Clown'
p3414
I97
sS'Rollercoaster'
p3415
I42
sS'qiao'
p3416
I74
sS'Stepmom'
p3417
I146
sS'Darby'
p3418
I158
sS"Cuckoo's"
p3419
I1725
sS'Starr'
p3420
I6
sS'ge'
p3421
I52
sS'Spock'
p3422
I927
sS'Slappy'
p3423
I1
sS'Saint'
p3424
I584
sS'Crimson'
p3425
I833
sS'disbellan'
p3426
I23
sS'Strays'
p3427
I4
sS'Isle'
p3428
I7
sS'Hsing'
p3429
I6
sS'Someone'
p3430
I141
sS"Miller's"
p3431
I358
sS'Ballroom'
p3432
I676
sS'Seeking'
p3433
I840
sS'Marvin'
p3434
I48
sS'Object'
p3435
I211
sS'Payne'
p3436
I140
sS'Glass'
p3437
I60
sS'Montana'
p3438
I5
sS'Beautician'
p3439
I148
sS'Not'
p3440
I1151
sS'Now'
p3441
I1849
sS'Odyssey'
p3442
I1826
sS'castrato'
p3443
I80
sS'Deal'
p3444
I14
sS'Seduction'
p3445
I60
sS'Treat'
p3446
I8
sS'Hereafter'
p3447
I381
sS'Stones'
p3448
I2
sS'Canadian'
p3449
I187
sS'Celebrity'
p3450
I96
sS'Bull'
p3451
I1772
sS'agua'
p3452
I772
sS'Tuned'
p3453
I71
sS'Punk'
p3454
I139
sS'P'
I26
sS'Stuff'
p3455
I782
sS"Preacher's"
p3456
I112
sS'Juror'
p3457
I114
sS'Lagoon'
p3458
I569
sS'Kissing'
p3459
I48
sS'ga'
p3460
I1
sS'Feeling'
p3461
I119
sS'Sorghum'
p3462
I65
sS'Blowup'
p3463
I246
sS'Risky'
p3464
I852
sS'24-hour'
p3465
I9
sS'Spy'
p3466
I2149
sS'False'
p3467
I148
sS'Pope'
p3468
I95
sS'Guantanamera'
p3469
I8
sS'Maurice'
p3470
I101
sS'Bedknobs'
p3471
I319
sS'Shadowlands'
p3472
I286
sS'Laid'
p3473
I42
sS'Related'
p3474
I20
sS'Talking'
p3475
I59
sS'Goodnight'
p3476
I434
sS'Deadtime'
p3477
I12
sS'Caligula'
p3478
I89
sS'Seattle'
p3479
I986
sS'Gazon'
p3480
I60
sS'Xiu'
p3481
I138
sS'Extremities'
p3482
I69
sS'Baraka'
p3483
I45
sS'8230'
p3484
I28
sS'Martin'
p3485
I344
sS'Howard'
p3486
I542
sS'Puppetmaster'
p3487
I6
sS'Magnificent'
p3488
I628
sS'Lone'
p3489
I630
sS'Brief'
p3490
I445
sS'Fast'
p3491
I1075
sS'Insult'
p3492
I412
sS'Presents'
p3493
I382
sS'Favor'
p3494
I31
sS'State'
p3495
I988
sS'Topsy-Turvy'
p3496
I304
sS'Anges'
p3497
I2
sS'Shadows'
p3498
I1
sS'Teaching'
p3499
I199
sS'Nurse'
p3500
I559
sS'Bruder'
p3501
I1
sS'pris'
p3502
I26
sS'3D'
p3503
I199
sS'Doubtfire'
p3504
I838
sS'Grit'
p3505
I320
sS'Zulu'
p3506
I2
sS"Child's"
p3507
I469
sS'Brassed'
p3508
I238
sS'Alan'
p3509
I17
sS'Boys'
p3510
I2888
sS'Chainsaw'
p3511
I479
sS'Otello'
p3512
I38
sS'Reed'
p3513
I16
sS'Line'
p3514
I2173
sS'America'
p3515
I1230
sS'Quatre'
p3516
I187
sS'Dollars'
p3517
I847
sS'Ladri'
p3518
I252
sS'Marty'
p3519
I205
sS'sur'
p3520
I122
sS'Rent-A-Cop'
p3521
I35
sS'Created'
p3522
I68
sS'Light'
p3523
I61
sS'Professor'
p3524
I1798
sS'Tannenbaum'
p3525
I19
sS'Barenaked'
p3526
I32
sS'Green'
p3527
I2433
sS'9000'
p3528
I1
sS"Angela's"
p3529
I225
sS'Switchback'
p3530
I88
sS'Dumber'
p3531
I660
sS'Mildred'
p3532
I136
sS'Idioterne'
p3533
I37
sS'Streak'
p3534
I128
sS'39'
p3535
I253
sS'Asylum'
p3536
I17
sS'hudi'
p3537
I72
sS'Funhouse'
p3538
I36
sS'Palace'
p3539
I181
sS'33'
p3540
I412
sS'Tequila'
p3541
I306
sS'Intimate'
p3542
I2
sS'Back'
p3543
I9013
sS'Ulisse'
p3544
I1
sS'Immortal'
p3545
I261
sS'Alien'
p3546
I4252
sS'Hardy'
p3547
I81
sS'Lips'
p3548
I13
sS'Ripley'
p3549
I1331
sS'Palm'
p3550
I104
sS'Arabia'
p3551
I831
sS'Ninotchka'
p3552
I132
sS'Ground'
p3553
I4
sS'Pale'
p3554
I312
sS'Wonder'
p3555
I496
sS'Jacket'
p3556
I1256
sS'Mountain'
p3557
I887
sS'Condorman'
p3558
I145
sS'Legends'
p3559
I797
sS'Doctor'
p3560
I1329
sS'Leading'
p3561
I10
sS'Magnolia'
p3562
I1113
sS'Rock'
p3563
I2398
sS'Hard-Boiled'
p3564
I327
sS'Tutor'
p3565
I35
sS'1900'
p3566
I20
sS'Breathless'
p3567
I129
sS'Exit'
p3568
I147
sS'French'
p3569
I1247
sS'Khomreh'
p3570
I1
sS'Nice'
p3571
I172
sS'Hud'
p3572
I279
sS'Solo'
p3573
I106
sS'Breathing'
p3574
I27
sS'from'
p3575
I4145
sS'che'
p3576
I21
sS'Hum'
p3577
I130
sS'Leni'
p3578
I62
sS"Devil's"
p3579
I1157
sS'Driver'
p3580
I1240
sS'Germinal'
p3581
I17
sS'Suture'
p3582
I32
sS'Mia'
p3583
I7
sS'Base'
p3584
I1
sS'ndagsengler'
p3585
I16
sS'Fe'
p3586
I29
sS'Broke'
p3587
I27
sS'Wedding'
p3588
I2350
sS'anges'
p3589
I141
sS'Brandon'
p3590
I49
sS"d'automne"
p3591
I47
sS'Heretic'
p3592
I113
sS'Land'
p3593
I569
sS'Paura'
p3594
I26
sS'Carnal'
p3595
I166
sS'Career'
p3596
I32
sS'Feast'
p3597
I25
sS'Gun'
p3598
I3231
sS'Grandfather'
p3599
I7
sS'Chop'
p3600
I107
sS'Connection'
p3601
I861
sS'Gump'
p3602
I2194
sS'Sauce'
p3603
I15
sS'Bottle'
p3604
I423
sS'Bloodsport'
p3605
I269
sS'Guy'
p3606
I660
sS'Generations'
p3607
I990
sS'Metisse'
p3608
I2
sS'Affair'
p3609
I1899
sS'Lassie'
p3610
I29
sS'Resort'
p3611
I10
sS'Nemesis'
p3612
I1
sS'Heartburn'
p3613
I74
sS'Gordy'
p3614
I10
sS'Huozhe'
p3615
I61
sS'Generation'
p3616
I84
sS'Cats'
p3617
I762
sS'VIII'
p3618
I99
sS'hua'
p3619
I21
sS'Regained'
p3620
I22
sS'sommeil'
p3621
I5
sS'Crucible'
p3622
I108
sS'Shining'
p3623
I1087
sS"Poisoner's"
p3624
I79
sS'loca'
p3625
I55
sS'Police'
p3626
I2020
sS'do'
p3627
I215
sS'Starlight'
p3628
I16
sS'Condor'
p3629
I555
sS'Receiver'
p3630
I69
sS'Sugarland'
p3631
I77
sS'Masters'
p3632
I187
sS'Keiner'
p3633
I12
sS'Parts'
p3634
I556
sS'Bounty'
p3635
I225
sS'Party'
p3636
I934
sS'Barbarian'
p3637
I572
sS'Christmas'
p3638
I3646
sS'Aseman'
p3639
I61
sS'Yi'
p3640
I52
sS'Lovely'
p3641
I85
sS'Godfather'
p3642
I4689
sS'Yo'
p3643
I2
sS'Compassion'
p3644
I103
sS'Drink'
p3645
I346
sS'Molly'
p3646
I11
sS'Zero'
p3647
I303
sS'tai'
p3648
I136
sS'Beast'
p3649
I1233
sS'Circuitry'
p3650
I16
sS'Spinnen'
p3651
I4
sS'Bay'
p3652
I3
sS'Seasons'
p3653
I260
sS'Friends'
p3654
I622
sS'Titans'
p3655
I437
sS'Ghost'
p3656
I2477
sS'Larger'
p3657
I47
sS'Diaries'
p3658
I181
sS'Tarantella'
p3659
I2
sS'Slumberland'
p3660
I22
sS'Ryan'
p3661
I2653
sS'Mrs'
p3662
I2298
sS'Lesser'
p3663
I331
sS'Roman'
p3664
I425
sS'Rosie'
p3665
I4
sS'Psycho'
p3666
I2444
sS'Bergerac'
p3667
I363
sS'Blaue'
p3668
I100
sS'Cocoon'
p3669
I1265
sS'Nueba'
p3670
I1
sS'Mommie'
p3671
I163
sS'Usual'
p3672
I1783
sS'Marlowe'
p3673
I2
sS'Kelly'
p3674
I28
sS'Apple'
p3675
I350
sS'Broomsticks'
p3676
I319
sS'Presidio'
p3677
I251
sS'Highlander'
p3678
I1079
sS'Kinky'
p3679
I48
sS'One'
p3680
I4633
sS'Ya'
p3681
I5
sS'Guard'
p3682
I50
sS'Farewell'
p3683
I403
sS'Retrouv'
p3684
I22
sS'Kings'
p3685
I1659
sS'Glengarry'
p3686
I571
sS'septembre'
p3687
I7
sS'Ayn'
p3688
I8
sS'Kwai'
p3689
I938
sS'Raise'
p3690
I309
sS'train'
p3691
I9
sS'Jeopardy'
p3692
I786
sS'Valour'
p3693
I103
sS'Smith'
p3694
I416
sS'Dudley'
p3695
I121
sS'Piranha'
p3696
I161
sS'Civilization'
p3697
I109
sS'Buddha'
p3698
I71
sS'Catwalk'
p3699
I7
sS'Outer'
p3700
I541
sS'Beirut'
p3701
I10
sS'Criminels'
p3702
I3
sS'Final'
p3703
I2188
sS'Match'
p3704
I111
sS'Body'
p3705
I1672
sS'Shell'
p3706
I314
sS'gaiwak'
p3707
I164
sS"Actor's"
p3708
I7
sS'la'
p3709
I236
sS"Who's"
p3710
I916
sS'Madam'
p3711
I50
sS'Squall'
p3712
I236
sS'Kelvin'
p3713
I2
sS'Fruit'
p3714
I9
sS'Dolittle'
p3715
I765
sS'Waterfront'
p3716
I519
sS'Inventing'
p3717
I131
sS'At'
p3718
I74
sS'Swimming'
p3719
I209
sS'More'
p3720
I325
sS'2010'
p3721
I470
sS'Queens'
p3722
I30
sS'Loved'
p3723
I487
sS'Celtic'
p3724
I51
sS'Sarafina'
p3725
I33
sS'Burden'
p3726
I52
sS'Miami'
p3727
I190
sS"Wouldn't"
p3728
I56
sS'dao'
p3729
I74
sS'Brother'
p3730
I266
sS'Loser'
p3731
I141
sS'Cat'
p3732
I1186
sS'za'
p3733
I10
sS'Ozona'
p3734
I1
sS'Can'
p3735
I369
sS'Loves'
p3736
I224
sS'Mother'
p3737
I735
sS'Venus'
p3738
I5
sS'Murders'
p3739
I226
sS'Robin'
p3740
I2204
sS'Nettoyage'
p3741
I2
sS'Summer'
p3742
I1705
sS'Est-ouest'
p3743
I103
sS'San'
p3744
I67
sS'Sam'
p3745
I395
sS'Collectionneuse'
p3746
I4
sS'VII'
p3747
I91
sS'Bhaji'
p3748
I35
sS'Malli'
p3749
I24
sS'Why'
p3750
I52
sS'Suddenly'
p3751
I102
sS'Say'
p3752
I914
sS'Conan'
p3753
I572
sS"Kestrel's"
p3754
I1
sS'Gary'
p3755
I22
sS'Critical'
p3756
I37
sS'Loaded'
p3757
I273
sS'Lambs'
p3758
I2578
sS'Saw'
p3759
I96
sS'Binds'
p3760
I12
sS'Shrew'
p3761
I139
sS'From'
p3762
I3823
sS'Spartacus'
p3763
I426
sS'Seal'
p3764
I299
sS'Videotape'
p3765
I562
sS'Balloon'
p3766
I52
sS'Treasure'
p3767
I709
sS'Aubrac'
p3768
I6
sS'Needful'
p3769
I242
sS"Butcher's"
p3770
I195
sS'Next'
p3771
I1005
sS'Crocodiles'
p3772
I13
sS'Magnum'
p3773
I210
sS'80'
p3774
I269
sS'81'
p3775
I72
sS'Fanny'
p3776
I128
sS'Plans'
p3777
I42
sS'Moreau'
p3778
I324
sS'Babe'
p3779
I2274
sS"'"
I52
sS'Very'
p3780
I427
sS'Season'
p3781
I148
sS"Arthur's"
p3782
I144
sS'Kindred'
p3783
I17
sS'Agreement'
p3784
I91
sS'Ave'
p3785
I11
sS'Stalag'
p3786
I394
sS'Dancer'
p3787
I272
sS'China'
p3788
I589
sS'Baby'
p3789
I1678
sS'Towering'
p3790
I266
sS'Rope'
p3791
I191
sS'Beginning'
p3792
I219
sS'Caballeros'
p3793
I126
sS'Grave'
p3794
I309
sS'Stage'
p3795
I209
sS'1986'
p3796
I30865
sS"l'herbe"
p3797
I94
sS'Douce'
p3798
I93
sS'Mascara'
p3799
I1
sS'Mountains'
p3800
I14
sS'This'
p3801
I2041
sS'1984'
p3802
I27012
sS'Teil'
p3803
I4
sS'Outrageous'
p3804
I185
sS'1985'
p3805
I24794
sS'Thin'
p3806
I1383
sS'Vampiras'
p3807
I3
sS'Perez'
p3808
I42
sS'qui'
p3809
I9
sS'Meet'
p3810
I1750
sS'Saimt'
p3811
I1
sS'Buffalo'
p3812
I485
sS'Agnes'
p3813
I310
sS'Gone'
p3814
I1789
sS'Hatchet'
p3815
I3
sS'Flesh'
p3816
I246
sS'Feiying'
p3817
I164
sS'1981'
p3818
I15346
sS'Himmel'
p3819
I242
sS'Jump'
p3820
I667
sS'Pleasantville'
p3821
I1158
sS'Gothic'
p3822
I62
sS'Girlfight'
p3823
I127
sS'Hanging'
p3824
I365
sS'Aces'
p3825
I125
sS'Artaud'
p3826
I20
sS'Sommersby'
p3827
I291
sS'Unforgettable'
p3828
I34
sS'Demolition'
p3829
I640
sS'Octane'
p3830
I7
sS'Sarajevo'
p3831
I82
sS'Caper'
p3832
I358
sS'loi'
p3833
I20
sS'Lodger'
p3834
I21
sS'Gung'
p3835
I244
sS'Mourner'
p3836
I7
sS'Snows'
p3837
I5
sS'Modern'
p3838
I308
sS'rennt'
p3839
I1072
sS'Submarine'
p3840
I399
sS'Prom'
p3841
I173
sS'Cradle'
p3842
I599
sS'1988'
p3843
I24067
sS'Nil'
p3844
I20
sS'Earrings'
p3845
I12
sS'Finding'
p3846
I5
sS'1989'
p3847
I28054
sS'Affection'
p3848
I211
sS'Guns'
p3849
I1524
sS'Hippie'
p3850
I1
sS'Belizaire'
p3851
I13
sS'North'
p3852
I1556
sS'Peeping'
p3853
I85
sS'Perils'
p3854
I25
sS'Farm'
p3855
I457
sS'Fireworks'
p3856
I15
sS'Flubber'
p3857
I378
sS'Coast'
p3858
I466
sS'Assassin'
p3859
I44
sS'Sing'
p3860
I2
sS'eXistenZ'
p3861
I410
sS'She'
p3862
I62
sS'Deuce'
p3863
I308
sS"'79"
p3864
I37
sS'Wings'
p3865
I542
sS'Penitentiary'
p3866
I4
sS'Warhol'
p3867
I100
sS'Wellville'
p3868
I149
sS'Mephisto'
p3869
I81
sS'Werewolf'
p3870
I861
sS'Lawnmower'
p3871
I712
sS"Coogan's"
p3872
I74
sS'Bride'
p3873
I4113
sS'Boomerang'
p3874
I194
sS'Bordeaux'
p3875
I24
sS"Man's"
p3876
I75
sS'Swan'
p3877
I54
sS'Disaster'
p3878
I318
sS'Re-Animator'
p3879
I313
sS'Metropolitan'
p3880
I198
sS'Antz'
p3881
I645
sS'Mass'
p3882
I23
sS'Universal'
p3883
I466
sS'Thief'
p3884
I893
sS'Fury'
p3885
I110
sS"Momma's"
p3886
I180
sS'Rascals'
p3887
I107
sS'Casper'
p3888
I259
sS'Duck'
p3889
I1065
sS'ber'
p3890
I242
sS'Peter'
p3891
I594
sS'Deedles'
p3892
I21
sS'Unzipped'
p3893
I82
sS'Richard'
p3894
I388
sS'Walkabout'
p3895
I136
sS'Desperado'
p3896
I540
sS'Harp'
p3897
I24
sS'Strangers'
p3898
I511
sS'Empire'
p3899
I3261
sS'Secret'
p3900
I1865
sS'Other'
p3901
I378
sS'Guts'
p3902
I7
sS'Diebinnen'
p3903
I1
sS'Interview'
p3904
I738
sS'Tinseltown'
p3905
I1
sS'Inherit'
p3906
I268
sS'Grosse'
p3907
I1141
sS'Pal'
p3908
I72
sS'Pan'
p3909
I594
sS'Mediaeval'
p3910
I110
sS'Hoosiers'
p3911
I590
sS'Rosey'
p3912
I18
sS'mia'
p3913
I7
sS'Batman'
p3914
I4077
sS'Thousand'
p3915
I65
sS'After'
p3916
I658
sS'Showgirls'
p3917
I217
sS'Flew'
p3918
I1725
sS'Samantha'
p3919
I2
sS'45'
p3920
I30
sS'301'
p3921
I9
sS'Santa'
p3922
I900
sS'Invisible'
p3923
I232
sS"'burbs"
p3924
I303
sS'Ticket'
p3925
I3
sS'Fled'
p3926
I105
sS'Babysitting'
p3927
I541
sS'Borrowers'
p3928
I177
sS'Pierce'
p3929
I136
sS'J'
I7
sS'Dare'
p3930
I474
sS'Titanic'
p3931
I1817
sS'Millionaire'
p3932
I37
sS'Awfully'
p3933
I23
sS'Sesame'
p3934
I87
sS"Dog's"
p3935
I24
sS'Priest'
p3936
I143
sS'Games'
p3937
I1341
sS'Pupil'
p3938
I187
sS'Horizon'
p3939
I595
sS'Locomotive'
p3940
I19
sS'SLC'
p3941
I139
sS'Bent'
p3942
I28
sS'Fright'
p3943
I395
sS'Chamber'
p3944
I78
sS'Lock'
p3945
I625
sS'Bio-Dome'
p3946
I143
sS'Honeymoon'
p3947
I617
sS'Some'
p3948
I1388
sS'Pop'
p3949
I184
sS'Fellow'
p3950
I121
sS'High'
p3951
I4370
sS'Pok'
p3952
I236
sS'Brains'
p3953
I312
sS'Tender'
p3954
I264
sS'Earth'
p3955
I1580
sS'Saturday'
p3956
I177
sS'1928'
p3957
I27
sS'Unbearable'
p3958
I266
sS'Advocate'
p3959
I826
sS'Buddy'
p3960
I235
sS'Platoon'
p3961
I1143
sS'Paris'
p3962
I1187
sS'Insomnia'
p3963
I49
sS'Guido'
p3964
I55
sS'Pimp'
p3965
I61
sS'Rangers'
p3966
I137
sS'nage'
p3967
I1
sS'Strip'
p3968
I6
sS'rouge'
p3969
I587
sS'Backdraft'
p3970
I869
sS'Encounters'
p3971
I1451
sS'Goat'
p3972
I26
sS'Independence'
p3973
I1730
sS'Burn'
p3974
I34
sS'ni'
p3975
I20
sS'Shut'
p3976
I945
sS'Contract'
p3977
I29
sS'rlighetens'
p3978
I2
sS'Azucar'
p3979
I11
sS'Measures'
p3980
I232
sS'Flying'
p3981
I189
sS"Felicia's"
p3982
I82
sS'Courage'
p3983
I446
sS'York'
p3984
I1598
sS'Mom'
p3985
I1196
sS'Pawnbroker'
p3986
I156
sS'Catch'
p3987
I443
sS'Mob'
p3988
I365
sS'Strong'
p3989
I59
sS'Legend'
p3990
I1193
sS'Mod'
p3991
I214
sS'hsing'
p3992
I6
sS'Duty'
p3993
I86
sS"J'ai"
p3994
I5
sS'Torchon'
p3995
I15
sS"Mother's"
p3996
I20
sS'Daens'
p3997
I1
sS'Ridicule'
p3998
I58
sS'Jackie'
p3999
I1181
sS'Minnesota'
p4000
I85
sS'Stella'
p4001
I140
sS'Stories'
p4002
I12
sS'Hussard'
p4003
I52
sS'River'
p4004
I1975
sS'Eighth'
p4005
I12
sS'Once'
p4006
I615
sS'Ringmaster'
p4007
I59
sS'Forget'
p4008
I259
sS'Betrayed'
p4009
I86
sS'Move'
p4010
I156
sS'Nikita'
p4011
I1466
sS'Buffy'
p4012
I512
sS'Devine'
p4013
I703
sS'Camelot'
p4014
I68
sS'Penny'
p4015
I40
sS'Gilmore'
p4016
I682
sS'Primal'
p4017
I502
sS'Feu'
p4018
I9
sS'Impossible'
p4019
I2840
sS"Mo'"
p4020
I79
sS'Looking'
p4021
I158
sS'Freejack'
p4022
I304
sS'catena'
p4023
I3
sS'Hocus'
p4024
I183
sS'Zoe'
p4025
I176
sS'Driving'
p4026
I652
sS'Firelight'
p4027
I11
sS"C'est"
p4028
I154
sS'Seabees'
p4029
I101
sS'Source'
p4030
I29
sS'Passion'
p4031
I185
sS'Jungle2Jungle'
p4032
I146
sS'Courtney'
p4033
I72
sS'Superstar'
p4034
I213
sS'Ph'
p4035
I57
sS'Pi'
p4036
I613
sS'Ballad'
p4037
I45
sS'Robocop'
p4038
I1924
sS'Tex'
p4039
I53
sS'Good'
p4040
I8356
sS'Godzilla'
p4041
I1200
sS'Seconds'
p4042
I656
sS'Leopold'
p4043
I2
sS'Eddie'
p4044
I39
sS'Bird'
p4045
I471
sS'destino'
p4046
I97
sS'Cyclo'
p4047
I30
sS'Impostors'
p4048
I74
sS'Twilight'
p4049
I53
sS'July'
p4050
I5
sS'Higher'
p4051
I141
sS'Richie'
p4052
I183
sS'Shoulder'
p4053
I20
sS'Exorcist'
p4054
I1125
sS'Florette'
p4055
I216
sS'Stonewall'
p4056
I20
sS'Telling'
p4057
I18
sS'Facing'
p4058
I31
sS'S'
I1692
sS'Race'
p4059
I167
sS'Ring'
p4060
I1
sS'Smoke'
p4061
I853
sS'Axe'
p4062
I682
sS'Anatomie'
p4063
I10
sS'Diggers'
p4064
I13
sS'Corrina'
p4065
I514
sS'Caro'
p4066
I28
sS'Dreamed'
p4067
I68
sS'Morant'
p4068
I360
sS'Confused'
p4069
I643
sS'etc'
p4070
I3
sS'Candle'
p4071
I227
sS'Shines'
p4072
I161
sS'Mafia'
p4073
I129
sS'Campus'
p4074
I130
sS'Helena'
p4075
I166
sS'ci'
p4076
I44
sS'Sunchaser'
p4077
I2
sS'Crowd'
p4078
I103
sS'Her'
p4079
I1408
sS'Paths'
p4080
I230
sS'Girls'
p4081
I1063
sS'arriv'
p4082
I154
sS'ce'
p4083
I4
sS'Fiction'
p4084
I2171
sS'rpa'
p4085
I57
sS'Bayou'
p4086
I179
sS'Thieves'
p4087
I589
sS'Music'
p4088
I1063
sS'Low'
p4089
I103
sS'Lou'
p4090
I51
sS'Holiday'
p4091
I701
sS'Temple'
p4092
I1127
sS'2000'
p4093
I41950
sS'Chacun'
p4094
I45
sS'Get'
p4095
I1824
sS'Louise'
p4096
I1417
sS'Zwerge'
p4097
I1
sS'Flatbush'
p4098
I85
sS'Dogma'
p4099
I989
sS'yao'
p4100
I148
sS'Guinevere'
p4101
I61
sS'Mansfield'
p4102
I145
sS'Presentano'
p4103
I2
sS'Merry'
p4104
I16
sS'Trouble'
p4105
I984
sS'Careful'
p4106
I15
sS'Snatcher'
p4107
I64
sS'Follia'
p4108
I3
sS'Center'
p4109
I182
sS'Topaz'
p4110
I39
sS'Conceiving'
p4111
I5
sS'Cemetery'
p4112
I101
sS'Dragon'
p4113
I323
sS'Untouchables'
p4114
I1127
sS'Vivante'
p4115
I2
sS'Cousin'
p4116
I1133
sS'Knights'
p4117
I92
sS'Essential'
p4118
I18
sS"That's"
p4119
I18
sS'And'
p4120
I909
sS'Celestial'
p4121
I10
sS'Force'
p4122
I1516
sS'Quilt'
p4123
I166
sS'Violets'
p4124
I15
sS'Presidents'
p4125
I221
sS'Grouchland'
p4126
I33
sS'Halloween'
p4127
I1444
sS'as'
p4128
I389
sS'General'
p4129
I318
sS'Clockwork'
p4130
I1239
sS'Chances'
p4131
I5
sS'Maniacs'
p4132
I15
sS'Battle'
p4133
I316
sS'Tainted'
p4134
I1
sS'Muppet'
p4135
I1620
sS'Any'
p4136
I492
sS'Blob'
p4137
I338
sS'va'
p4138
I20
sS'Contender'
p4139
I388
sS'Cavalcade'
p4140
I5
sS'Museum'
p4141
I11
sS'Chungking'
p4142
I115
sS'Shanghai'
p4143
I898
sS'Perversions'
p4144
I29
sS'vs'
p4145
I592
sS'Pretty'
p4146
I1739
sS'Goldene'
p4147
I4
sS'Toxic'
p4148
I297
sS'You'
p4149
I4328
sS'Beach'
p4150
I1168
sS'Outsiders'
p4151
I256
sS'Hope'
p4152
I3378
sS'Loving'
p4153
I160
sS'Nosferatu'
p4154
I490
sS'Rugrats'
p4155
I141
sS'Fever'
p4156
I244
sS'Return'
p4157
I5291
sS'Turtles'
p4158
I973
sS'una'
p4159
I2
sS'Beat'
p4160
I37
sS'Hunter'
p4161
I700
sS'JLG'
p4162
I8
sS'Bear'
p4163
I419
sS'Underneath'
p4164
I41
sS'Bean'
p4165
I215
sS'Dorado'
p4166
I236
sS'Palmetto'
p4167
I220
sS'Hunted'
p4168
I49
sS'Kahuna'
p4169
I304
sS'Ponette'
p4170
I73
sS'Sherlock'
p4171
I379
sS"Carlito's"
p4172
I369
sS'Superweib'
p4173
I1
sS'Third'
p4174
I1976
sS'Tracce'
p4175
I2
sS'Ride'
p4176
I73
sS'Sacco'
p4177
I6
sS'indien'
p4178
I1
sS'Concorde'
p4179
I37
sS'Freeway'
p4180
I169
sS'Entrapment'
p4181
I777
sS'Midaq'
p4182
I5
sS'Kingukongu'
p4183
I136
sS'Exhale'
p4184
I170
sS'Tribe'
p4185
I108
sS'Groundhog'
p4186
I2278
sS'Yes'
p4187
I207
sS'Deceased'
p4188
I4
sS'Neighbors'
p4189
I109
sS'Craft'
p4190
I416
sS'Extra-Terrestrial'
p4191
I2269
sS'Eyre'
p4192
I82
sS"Chan's"
p4193
I297
sS'Spring'
p4194
I223
sS'Julie'
p4195
I214
sS'Muir'
p4196
I171
sS'Beefcake'
p4197
I4
sS'Tide'
p4198
I761
sS'Bait'
p4199
I57
sS'Avalanche'
p4200
I17
sS'Volti'
p4201
I21
sS'Potyomkin'
p4202
I234
sS'Happiness'
p4203
I351
sS'Have'
p4204
I245
sS'Railroaded'
p4205
I3
sS'Violin'
p4206
I583
sS'Total'
p4207
I2026
sS'Voleurs'
p4208
I36
sS'Turtle'
p4209
I23
sS'Femme'
p4210
I852
sS'Suspects'
p4211
I1783
sS'Flower'
p4212
I17
sS'Flynt'
p4213
I456
sS'Faithful'
p4214
I8
sS'Alligator'
p4215
I247
sS'Kalifornia'
p4216
I294
sS'Social'
p4217
I230
sS'Vicious'
p4218
I58
sS'Trigger'
p4219
I59
sS'Tramp'
p4220
I864
sS'Sunday'
p4221
I514
sS'Species'
p4222
I765
sS'Beloved'
p4223
I396
sS'Hauser'
p4224
I28
sS'Weeks'
p4225
I237
sS'Analyze'
p4226
I616
sS'Sabotage'
p4227
I54
sS'Porter'
p4228
I21
sS'Brigade'
p4229
I43
sS'Be'
p4230
I1750
sS'Tracers'
p4231
I7
sS'Far'
p4232
I522
sS'vida'
p4233
I55
sS'Friday'
p4234
I2336
sS'Gila'
p4235
I27
sS'Scream'
p4236
I1918
sS'Broken'
p4237
I715
sS'Reason'
p4238
I1
sS'Butt-head'
p4239
I475
sS'Fan'
p4240
I145
sS'Hombre'
p4241
I31
sS'Atlantic'
p4242
I304
sS'By'
p4243
I691
sS'Darn'
p4244
I217
sS'Drum'
p4245
I94
sS'Nobody'
p4246
I12
sS"Marvin's"
p4247
I104
sS'Shampoo'
p4248
I273
sS'Dinner'
p4249
I431
sS'T'
I2312
sS'Volcano'
p4250
I181
sS'Fallen'
p4251
I388
sS'Synthetic'
p4252
I3
sS'Jamaica'
p4253
I8
sS'Novia'
p4254
I2
sS'Marie'
p4255
I2
sS'Carrie'
p4256
I672
sS'Casablanca'
p4257
I1669
sS'Manuscript'
p4258
I11
sS'Vanzetti'
p4259
I6
sS'Within'
p4260
I9
sS'Sleepy'
p4261
I1066
sS'Honey'
p4262
I1426
sS'Scarlet'
p4263
I112
sS'Durham'
p4264
I1095
sS'Pot'
p4265
I7
sS'Deliverance'
p4266
I729
sS'Switchblade'
p4267
I28
sS'Polish'
p4268
I65
sS'Inspector'
p4269
I427
sS'Shuang'
p4270
I66
sS'liebt'
p4271
I12
sS'Board'
p4272
I24
sS'cavo'
p4273
I21
sS'Sue'
p4274
I506
sS'Replacements'
p4275
I241
sS'Sub'
p4276
I82
sS'Earthbound'
p4277
I17
sS'Undiscovered'
p4278
I1001
sS'Sun'
p4279
I893
sS'Sum'
p4280
I33
sS'Comfort'
p4281
I217
sS'Meatballs'
p4282
I493
sS'Forty'
p4283
I167
sS'Quiz'
p4284
I705
sS'Cliffhanger'
p4285
I686
sS"There's"
p4286
I1371
sS'Curtain'
p4287
I58
sS'Underground'
p4288
I37
sS'Inish'
p4289
I300
sS'Rainmaker'
p4290
I321
sS'Warrior'
p4291
I1784
sS'est'
p4292
I18
sS'Lost'
p4293
I6167
sS'Monsieur'
p4294
I60
sS'Baker'
p4295
I358
sS'Willie'
p4296
I197
sS'Tides'
p4297
I321
sS'Killer'
p4298
I739
sS'Seventh'
p4299
I482
sS'Checks'
p4300
I76
sS'Secrets'
p4301
I474
sS'Wishes'
p4302
I33
sS'Gaslight'
p4303
I187
sS'Country'
p4304
I1158
sS'Confessionnal'
p4305
I8
sS'Slickers'
p4306
I392
sS'Heaven'
p4307
I1171
sS'Eden'
p4308
I363
sS'Straight'
p4309
I429
sS'Official'
p4310
I38
sS'Jewel'
p4311
I673
sS'Up'
p4312
I2455
sS'Us'
p4313
I350
sS'Specials'
p4314
I8
sS'Un'
p4315
I92
sS'Exotica'
p4316
I235
sS'Farinelli'
p4317
I80
sS'Suburbia'
p4318
I33
sS'Stanley'
p4319
I68
sS'Smiling'
p4320
I26
sS'Woop-Woop'
p4321
I13
sS'Baked'
p4322
I198
sS'Mastroianni'
p4323
I13
sS'Regarde'
p4324
I7
sS'Nebula'
p4325
I1
sS'Toilet'
p4326
I1
sS'Ogre'
p4327
I4
sS'Johnny'
p4328
I460
sS'April'
p4329
I263
sS'Raging'
p4330
I677
sS'Rappaport'
p4331
I40
sS'Ages'
p4332
I9
sS'Event'
p4333
I498
sS'Stigmata'
p4334
I419
sS'Conspiracy'
p4335
I830
sS'Americans'
p4336
I121
sS'Festen'
p4337
I117
sS'Portrait'
p4338
I282
sS'stsonaten'
p4339
I30
sS'Voyage'
p4340
I2075
sS'Benjamenta'
p4341
I3
sS'Grape'
p4342
I693
sS'Wallace'
p4343
I438
sS'Pinocchio'
p4344
I552
sS'Somewhere'
p4345
I286
sS'Juan'
p4346
I386
sS'Lose'
p4347
I44
sS'Two'
p4348
I1962
sS'Sleepwalkers'
p4349
I113
sS'Sneakers'
p4350
I1091
sS'eine'
p4351
I238
sS'Wight'
p4352
I7
sS'mera'
p4353
I7
sS'Orange'
p4354
I1229
sS'Fievel'
p4355
I201
sS'Creole'
p4356
I51
sS'Addiction'
p4357
I69
sS'Network'
p4358
I688
sS'Blustery'
p4359
I221
sS'1987'
p4360
I24770
sS'Gattaca'
p4361
I1077
sS'Grease'
p4362
I1120
sS'1982'
p4363
I18712
sS'1983'
p4364
I14197
sS'1980'
p4365
I16239
sS'Lawrence'
p4366
I831
sS'Crooks'
p4367
I369
sS'eoniotita'
p4368
I7
sS'Upon'
p4369
I457
sS'Stripes'
p4370
I740
sS"Gould's"
p4371
I62
sS'Worrying'
p4372
I1367
sS'Amy'
p4373
I966
sS'Dunes'
p4374
I77
sS'Vegas'
p4375
I2164
sS'Grapes'
p4376
I532
sS'Child'
p4377
I1138
sS'Dust'
p4378
I15
sS'Marnie'
p4379
I118
sS'Champions'
p4380
I54
sS'Condition'
p4381
I20
sS'Chill'
p4382
I894
sS"Roseanna's"
p4383
I36
sS'Grauens'
p4384
I238
sS'Science'
p4385
I1155
sS'Der'
p4386
I369
sS'Phat'
p4387
I4
sS'Det'
p4388
I299
sS'Detroit'
p4389
I247
sS'Started'
p4390
I1
sS'Trip'
p4391
I608
sS'Faraway'
p4392
I66
sS'Anastasia'
p4393
I304
sS'Cassidy'
p4394
I1419
sS'Following'
p4395
I29
sS'Vanya'
p4396
I114
sS'Fantasia'
p4397
I1396
sS'Homeward'
p4398
I301
sS'Gathering'
p4399
I42
sS'Babyfever'
p4400
I4
sS'Bicycle'
p4401
I252
sS"Charlotte's"
p4402
I497
sS'Gold'
p4403
I1148
sS'Wall'
p4404
I387
sS'Tea'
p4405
I122
sS'Inkwell'
p4406
I35
sS'Longxiong'
p4407
I72
sS'Alive'
p4408
I474
sS'Walk'
p4409
I575
sS'Twist'
p4410
I115
sS'Vagabond'
p4411
I20
sS'Jeanne'
p4412
I4
sS'Care'
p4413
I54
sS'Sematary'
p4414
I421
sS'Ivy'
p4415
I247
sS'Lebowski'
p4416
I1097
sS'Jesse'
p4417
I5
sS'Alarmist'
p4418
I8
sS'Chabert'
p4419
I20
sS'Vertigo'
p4420
I905
sS'Realm'
p4421
I42
sS'Spirits'
p4422
I78
sS'Saltmen'
p4423
I8
sS'Clean'
p4424
I63
sS'Lake'
p4425
I453
sS'Inform'
p4426
I4
sS'Orgazmo'
p4427
I119
sS'Georgia'
p4428
I45
sS'Fancy'
p4429
I35
sS'Doors'
p4430
I1144
sS'Trousers'
p4431
I882
sS'Talented'
p4432
I1331
sS'Turning'
p4433
I17
sS'Fate'
p4434
I55
sS'Shall'
p4435
I875
sS'Beholder'
p4436
I267
sS'Never'
p4437
I2779
sS'Deliver'
p4438
I343
sS'Yesterday'
p4439
I187
sS'Volume'
p4440
I317
sS'Mario'
p4441
I350
sS'Dearest'
p4442
I163
sS'Five'
p4443
I430
sS'Know'
p4444
I1060
sS'Waterboy'
p4445
I420
sS'Endgame'
p4446
I135
sS'William'
p4447
I479
sS'Nineteen'
p4448
I278
sS'illusion'
p4449
I165
sS'Serenade'
p4450
I68
sS'Loss'
p4451
I26
sS'Months'
p4452
I211
sS'Like'
p4453
I1664
sS'Ace'
p4454
I1155
sS'Croupier'
p4455
I235
sS'Damien'
p4456
I165
sS'Year'
p4457
I761
sS'Karate'
p4458
I1411
sS'Swamp'
p4459
I273
sS'Rent-a-Kid'
p4460
I6
sS'Future'
p4461
I5885
sS'U'
I704
sS'Identification'
p4462
I2
sS'Act'
p4463
I868
sS'Shakes'
p4464
I97
sS'Page'
p4465
I2
sS'South'
p4466
I1882
sS'Wrongfully'
p4467
I123
sS'Illuminata'
p4468
I25
sS'Surviving'
p4469
I159
sS'Thunderball'
p4470
I404
sS'Clockers'
p4471
I116
sS'Dancemaker'
p4472
I5
sS'Private'
p4473
I3837
sS'Baie'
p4474
I2
sS'Lamerica'
p4475
I8
sS'Sheltering'
p4476
I61
sS'Proposition'
p4477
I1
sS'Sleep'
p4478
I547
sS'Remagen'
p4479
I56
sS'Spanish'
p4480
I493
sS'Harmonists'
p4481
I28
sS'Slaughterhouse'
p4482
I15
sS'Happen'
p4483
I268
sS'Shooting'
p4484
I30
sS'Corpi'
p4485
I2
sS'Bushwhacked'
p4486
I14
sS'8th'
p4487
I611
ssS'_mapping'
p4488
(dp4489
g18
I2981
sg19
I4203
sg20
I3860
sg21
I1808
sg22
I1299
sg23
I3827
sg24
I602
sg25
I3595
sg26
I2703
sg27
I2081
sg28
I4320
sg29
I444
sg30
I1811
sg31
I1745
sg32
I846
sg33
I4049
sg34
I1692
sg35
I2982
sg36
I3653
sg37
I920
sg38
I103
sg39
I158
sg40
I2291
sg41
I1367
sg42
I2710
sg43
I4225
sg44
I3425
sg45
I1708
sg46
I2617
sg47
I345
sg48
I1128
sg49
I3739
sg50
I3623
sg51
I3233
sg52
I4296
sg53
I2332
sg54
I84
sg55
I604
sg56
I229
sg57
I2963
sg58
I4245
sg59
I4250
sg60
I3155
sg61
I428
sg62
I358
sg63
I3652
sg64
I1279
sg65
I3142
sg66
I2574
sg67
I3042
sg68
I1134
sg69
I3606
sg70
I625
sg71
I1833
sg72
I1798
sg73
I3572
sg74
I3512
sg75
I3722
sg76
I104
sg77
I1542
sg78
I2445
sg79
I4068
sg80
I3766
sg81
I2005
sg82
I1767
sg83
I100
sg84
I2461
sg85
I2362
sg86
I1661
sg87
I611
sg88
I2879
sg89
I3027
sg90
I2920
sg91
I507
sg92
I2171
sg93
I3723
sg94
I1751
sg95
I305
sg96
I464
sg97
I4339
sg98
I685
sg99
I3417
sg100
I724
sg101
I467
sg102
I2785
sg103
I1623
sg104
I4394
sg105
I2578
sg106
I1257
sg107
I1122
sg108
I1941
sg109
I765
sg110
I2705
sg111
I354
sg112
I404
sg113
I1164
sg114
I4076
sg115
I3893
sg116
I2365
sg117
I3954
sg118
I1968
sg119
I1657
sg120
I1028
sg121
I3955
sg122
I136
sg123
I4018
sg124
I1045
sg125
I525
sg126
I2526
sg127
I2899
sg128
I4469
sg129
I1198
sg130
I2808
sg131
I3240
sg132
I3008
sg133
I3466
sg134
I2863
sg135
I2871
sg136
I2414
sg137
I1973
sg138
I3704
sg139
I1712
sg140
I2282
sg141
I1209
sg142
I515
sg143
I1936
sS'k'
I656
sg144
I982
sg145
I4389
sg146
I4097
sg147
I2742
sg148
I3820
sg149
I2910
sg150
I3552
sg151
I2641
sg152
I1250
sg153
I1073
sg154
I627
sg155
I4498
sg156
I1460
sg157
I1695
sg158
I4401
sg159
I3991
sg160
I2210
sg161
I2506
sg162
I1042
sg163
I436
sg164
I4325
sg165
I2886
sg166
I4356
sg167
I584
sg168
I2700
sg169
I3323
sg170
I1572
sg171
I799
sg172
I516
sg173
I3080
sg174
I1853
sg175
I3846
sg176
I3643
sg177
I2671
sg178
I126
sg179
I3626
sg180
I4500
sg181
I1658
sg182
I2263
sg183
I2952
sg184
I3768
sg185
I1507
sg186
I4141
sg187
I486
sg188
I2304
sg189
I1267
sg190
I2911
sg191
I1979
sg192
I3036
sg193
I3074
sg194
I4242
sg195
I3276
sg196
I2652
sg197
I20
sg198
I1587
sg199
I3129
sg200
I1778
sg201
I1883
sg202
I3806
sg203
I3239
sS'V'
I299
sg204
I3982
sg205
I4180
sg206
I3910
sg207
I44
sg208
I67
sg209
I963
sg210
I102
sg211
I87
sg212
I217
sg213
I93
sg214
I12
sg215
I63
sg216
I23
sg217
I135
sg218
I3608
sg219
I1543
sg220
I3829
sg221
I567
sg222
I2861
sg223
I2075
sg224
I2552
sg225
I2198
sg226
I4157
sg227
I1287
sg228
I2915
sg229
I2569
sg230
I1845
sg231
I975
sg232
I575
sg233
I987
sg234
I4187
sg235
I3320
sg236
I38
sg237
I1023
sg238
I866
sg239
I1997
sg240
I1357
sg241
I2686
sg242
I3032
sg243
I1846
sg244
I2010
sg245
I2622
sg246
I825
sg247
I1534
sg248
I687
sg249
I3361
sg250
I2308
sg251
I2877
sg252
I2255
sg253
I2807
sg254
I3403
sg255
I3726
sg256
I3975
sg257
I4375
sg258
I2121
sg259
I4240
sg260
I1932
sg261
I3255
sg262
I798
sg263
I1873
sg264
I1175
sg265
I4105
sg266
I702
sg267
I1056
sg268
I3263
sg269
I518
sg270
I3151
sS'A'
I22
sg271
I2187
sg272
I2811
sg273
I2394
sg274
I2338
sg275
I4173
sg276
I4370
sg277
I99
sg278
I2446
sg279
I594
sg280
I2238
sg281
I1565
sg282
I4332
sg283
I616
sg284
I2979
sg285
I3708
sg286
I1509
sg287
I3198
sg288
I3184
sg289
I572
sg290
I3099
sg291
I2828
sg292
I2372
sg293
I3480
sg294
I1556
sg295
I3061
sg296
I3919
sg297
I3804
sg298
I3839
sg299
I1603
sg300
I2111
sg301
I1612
sg302
I1877
sg303
I1398
sg304
I1225
sg305
I1828
sg306
I177
sg307
I813
sg308
I2966
sg309
I2477
sg310
I1474
sg311
I410
sg312
I224
sg313
I3100
sg314
I1382
sg315
I3230
sg316
I1651
sg317
I2333
sg318
I4083
sg319
I208
sg320
I1735
sg321
I3167
sg322
I1513
sg323
I4133
sg324
I3703
sg325
I2788
sg326
I1392
sg327
I1863
sg328
I1218
sg329
I3628
sg330
I957
sg331
I3397
sg332
I749
sg333
I2853
sg334
I3898
sg335
I1046
sg336
I1491
sg337
I1864
sg338
I2324
sg339
I3245
sg340
I2182
sg341
I403
sg342
I3119
sg343
I1063
sg344
I3615
sg345
I1017
sg346
I1922
sg347
I2008
sg348
I3049
sg349
I1187
sg350
I3958
sg351
I2367
sg352
I314
sg353
I4078
sg354
I3569
sg355
I2061
sg356
I4055
sg357
I647
sg358
I2196
sg359
I1861
sg360
I4174
sg361
I2192
sg362
I1373
sg363
I3928
sg364
I508
sg365
I3125
sg366
I2084
sg367
I4373
sg368
I4220
sg369
I453
sg370
I279
sg371
I3374
sg372
I1503
sg373
I2927
sg374
I976
sg375
I2432
sg376
I2803
sg377
I2472
sg378
I3685
sg379
I3850
sg380
I954
sg381
I3154
sg382
I4478
sg383
I190
sg384
I2419
sg385
I2013
sg386
I3786
sg387
I273
sg388
I4265
sg389
I2721
sg390
I3990
sg391
I3936
sg392
I3387
sg393
I2037
sg394
I4405
sg395
I460
sg396
I2996
sg397
I3000
sg398
I127
sg399
I2499
sg400
I912
sg401
I1156
sg402
I4226
sg403
I2208
sg404
I479
sg405
I179
sg406
I4130
sg407
I3517
sg408
I2460
sg409
I4256
sg410
I1389
sg411
I1868
sg412
I4383
sg413
I1019
sg414
I1470
sg415
I1388
sg416
I3872
sg417
I2474
sg418
I1815
sg419
I1662
sg420
I2716
sg421
I488
sg422
I1343
sg423
I783
sS'W'
I4033
sg424
I1306
sg425
I3923
sg426
I988
sg427
I956
sg428
I822
sg429
I2558
sg430
I1875
sg431
I509
sg432
I4480
sg433
I3338
sg434
I3405
sg435
I1958
sg436
I3638
sg437
I2865
sg438
I557
sg439
I1360
sg440
I2412
sg441
I4071
sg442
I4261
sg443
I2850
sg444
I2485
sg445
I942
sg446
I1992
sg447
I530
sg448
I3674
sg449
I2475
sg450
I541
sg451
I1598
sg452
I394
sg453
I2200
sg454
I3328
sg455
I1931
sg456
I2950
sg457
I1860
sg458
I1167
sg459
I481
sg460
I1113
sg12
I0
sg461
I4491
sg462
I2276
sg463
I3516
sg464
I3290
sg465
I1322
sg466
I353
sg467
I3133
sg468
I3677
sg469
I2032
sS'Q'
I2033
sg470
I3313
sg471
I1615
sg472
I244
sg473
I386
sg474
I2049
sg475
I3138
sg476
I1190
sS'B'
I3317
sg477
I4263
sg478
I3488
sg479
I1522
sS'D'
I3189
sg480
I109
sg481
I4222
sg482
I2832
sg483
I424
sg484
I2140
sg485
I4440
sg486
I1758
sg487
I3705
sg488
I3994
sg489
I3215
sg490
I1512
sg491
I552
sg492
I1438
sg493
I2337
sg494
I4159
sg495
I1426
sg496
I4395
sg497
I2431
sg498
I743
sg499
I3784
sg500
I1008
sg501
I831
sg502
I1210
sg503
I332
sg504
I559
sg505
I3396
sg506
I1117
sg507
I1318
sg508
I593
sg509
I1188
sg510
I1862
sg511
I2483
sg512
I2860
sg513
I2494
sg514
I3294
sg515
I946
sg516
I4330
sg517
I3069
sg518
I52
sg519
I75
sg520
I1760
sg521
I2568
sg522
I3122
sg523
I1308
sg524
I1452
sg525
I2288
sg526
I3424
sg527
I3590
sg528
I151
sg529
I615
sg530
I446
sg531
I16
sg532
I59
sg533
I474
sg534
I275
sS'-'
I130
sg535
I178
sg536
I142
sg537
I1094
sg538
I3117
sg539
I2239
sg540
I1526
sg541
I4504
sg542
I2463
sg543
I4271
sg544
I1400
sg545
I1620
sg546
I2344
sg547
I2852
sg548
I375
sg549
I1327
sg550
I2095
sg551
I1347
sg552
I3530
sg553
I4234
sg554
I2123
sg555
I2992
sg556
I3373
sg557
I3393
sg558
I4017
sg559
I249
sg560
I4219
sg561
I2508
sg562
I1669
sg563
I2002
sg564
I833
sg565
I1523
sg566
I998
sg567
I772
sg568
I4410
sg569
I1806
sg570
I1033
sg571
I1602
sg572
I3695
sg573
I771
sg574
I482
sg575
I502
sg576
I2830
sg577
I3874
sg578
I2132
sg579
I2961
sg580
I3464
sg581
I661
sg582
I3669
sg583
I1757
sg584
I2393
sg585
I3112
sg586
I3974
sg587
I948
sg588
I3014
sg589
I843
sg590
I2339
sg591
I3309
sg592
I4385
sg593
I4123
sg594
I3015
sg595
I4012
sg596
I3894
sg597
I2528
sg598
I3278
sg599
I4321
sg600
I3647
sg601
I1030
sg602
I1349
sg603
I304
sg604
I2386
sg605
I889
sg606
I1899
sg607
I2215
sg608
I4454
sg609
I68
sg610
I896
sg611
I1830
sg612
I1449
sg613
I3295
sg614
I2577
sg615
I4314
sg616
I438
sg617
I272
sg618
I1965
sg619
I3484
sg620
I990
sg621
I1969
sg622
I2780
sg623
I4384
sg624
I2873
sg625
I4254
sg626
I589
sg627
I4331
sg628
I3030
sg629
I1501
sg630
I3851
sg631
I28
sg632
I723
sg633
I3866
sg634
I108
sg635
I2342
sg636
I2395
sg637
I2381
sg638
I1989
sS'X'
I938
sg639
I1779
sg640
I1514
sg641
I2359
sg642
I2882
sg643
I2305
sg644
I3750
sg645
I3190
sg646
I3
sg647
I668
sg648
I1016
sg649
I3977
sg650
I1142
sg651
I1949
sg652
I296
sg653
I642
sg654
I141
sg655
I49
sg656
I4010
sg657
I236
sg658
I3159
sg659
I2697
sg660
I757
sg661
I1473
sg662
I2933
sg663
I3352
sg664
I1214
sg665
I2231
sg666
I3306
sg667
I2225
sg668
I3996
sg669
I4103
sg670
I657
sg671
I1663
sg672
I2194
sg673
I3979
sg674
I215
sg675
I422
sg676
I2306
sg677
I699
sg678
I4275
sg679
I3102
sg680
I1929
sg681
I3016
sg682
I123
sg683
I2893
sg684
I1131
sg685
I1448
sg686
I2301
sg687
I355
sg688
I266
sg689
I3098
sg690
I3210
sg691
I710
sg692
I1328
sg693
I1013
sg694
I4289
sg695
I2209
sg696
I1518
sg697
I2918
sg698
I286
sg699
I2229
sg700
I2906
sg701
I3368
sg702
I4038
sg703
I1430
sg704
I2625
sg705
I1715
sg706
I620
sg707
I4464
sg708
I1048
sg709
I3011
sg710
I1852
sg711
I184
sg712
I2516
sg713
I3755
sg714
I3665
sg715
I1101
sg716
I4304
sg717
I157
sg718
I2424
sg719
I310
sg720
I1641
sg721
I2783
sg722
I3318
sg723
I1387
sg724
I2379
sg725
I2310
sg726
I3270
sg727
I3937
sg728
I435
sg729
I4377
sg730
I3114
sg731
I2089
sg732
I3060
sg733
I4367
sg734
I3494
sg735
I940
sg736
I2495
sg737
I2667
sg738
I531
sg739
I3457
sg740
I4438
sg741
I4148
sg742
I33
sg743
I2079
sg744
I1193
sg745
I3446
sg746
I1492
sg747
I4129
sg748
I1515
sg749
I3038
sg750
I3507
sg751
I4287
sg752
I4434
sg753
I4496
sg754
I3556
sg755
I1481
sg756
I4195
sg757
I4467
sg758
I2227
sg759
I1259
sg760
I1054
sg761
I239
sg762
I2307
sg763
I2822
sg764
I651
sg765
I1280
sg766
I2062
sg767
I2713
sg768
I4343
sg769
I768
sg770
I972
sg771
I1525
sg772
I154
sg773
I770
sg774
I1921
sg775
I711
sg776
I717
sg777
I2127
sg778
I3833
sg779
I96
sg780
I3567
sg781
I1251
sg782
I4493
sg783
I3111
sg784
I1423
sg785
I1416
sg786
I1710
sg787
I2829
sg788
I1211
sg789
I2890
sg790
I4136
sg791
I1723
sg792
I3847
sg793
I1000
sg794
I3191
sg795
I1878
sg796
I2442
sg797
I1256
sg798
I2881
sg799
I2665
sg800
I1233
sg801
I283
sg802
I618
sg803
I2874
sg804
I2096
sg805
I2464
sg806
I703
sg807
I3132
sg808
I1959
sg809
I1288
sg810
I3327
sg811
I459
sg812
I1102
sg813
I1857
sg814
I1145
sg815
I989
sg816
I3607
sg817
I1579
sg818
I2302
sg819
I3803
sg820
I1937
sg821
I2955
sg822
I1154
sg823
I653
sg824
I1410
sg825
I826
sg826
I867
sg827
I4168
sg828
I495
sg829
I4030
sg830
I1326
sg831
I3128
sg832
I2583
sg833
I4503
sg834
I3901
sg835
I3666
sg836
I3434
sg837
I2866
sg838
I321
sg839
I3113
sg840
I335
sg841
I400
sg842
I133
sg843
I1037
sg844
I7
sg845
I454
sg846
I322
sg847
I456
sg848
I325
sg849
I1161
sg850
I334
sg851
I3824
sg852
I3942
sg853
I4
sg854
I2561
sg855
I1920
sg856
I3774
sg857
I40
sg858
I3337
sg859
I1424
sg860
I1246
sg861
I4341
sg862
I2073
sg863
I4175
sg864
I705
sg865
I1217
sg866
I2150
sg867
I2732
sg868
I2656
sg869
I74
sg870
I4101
sg871
I1608
sg872
I2604
sg873
I216
sg874
I406
sg875
I2576
sg876
I3588
sg877
I2827
sg878
I4286
sg879
I2251
sg880
I4473
sg881
I1351
sg882
I1667
sg883
I2406
sg884
I2870
sg885
I1794
sg886
I2476
sg887
I2541
sg888
I2895
sg889
I1511
sg890
I1155
sg891
I2696
sg892
I4229
sg893
I3257
sg894
I3780
sg895
I683
sg896
I2087
sg897
I2840
sg898
I8
sg899
I2977
sg900
I700
sg901
I3908
sg902
I1249
sg903
I1412
sg904
I199
sg905
I738
sg906
I4387
sg907
I777
sg908
I170
sg909
I1676
sg910
I357
sg911
I3821
sg912
I3582
sg913
I856
sg914
I1147
sg915
I1817
sg916
I4308
sg917
I3998
sg918
I760
sg919
I493
sg920
I3837
sg921
I2071
sg922
I477
sg923
I1843
sg924
I1163
sg925
I776
sg926
I3592
sg927
I3657
sg928
I1302
sg929
I306
sg930
I925
sg931
I854
sg932
I3972
sg933
I590
sg934
I3812
sg935
I3166
sg936
I3753
sg937
I1865
sg938
I3012
sg939
I936
sg940
I830
sg941
I2708
sg942
I1558
sg943
I761
sg944
I3064
sg945
I3895
sg946
I149
sg947
I3482
sg948
I1068
sg949
I2272
sg950
I4515
sg951
I1768
sg952
I3912
sg953
I21
sg954
I2631
sg955
I3195
sg956
I1022
sg957
I3540
sg958
I363
sg959
I1990
sg960
I2678
sg961
I3277
sg962
I1440
sg963
I257
sg964
I1793
sg965
I1904
sg966
I2995
sg967
I86
sg968
I2584
sg969
I895
sg970
I689
sg971
I2987
sg972
I4362
sg973
I2693
sg974
I2533
sg975
I2252
sg976
I3636
sg977
I4011
sg978
I1157
sg979
I553
sg980
I64
sg981
I3968
sg982
I1396
sg983
I3481
sg984
I1458
sg985
I2912
sg986
I2677
sg987
I1741
sg988
I1529
sg989
I623
sg990
I1493
sg991
I943
sg992
I2294
sg993
I4477
sg994
I1713
sg995
I14
sg996
I3006
sg997
I2099
sg998
I3913
sg999
I2859
sg1000
I646
sS'o'
I3767
sg1001
I389
sg1002
I3209
sg1003
I3137
sg1004
I172
sg1005
I746
sg1006
I2658
sg1007
I2166
sg1008
I2781
sg1009
I202
sg1010
I2235
sg1011
I73
sg1012
I1733
sg1013
I4077
sg1014
I2405
sg1015
I2142
sg1016
I3934
sg1017
I2281
sg1018
I3332
sg1019
I1939
sg1020
I2421
sg1021
I2293
sg1022
I1749
sg1023
I2523
sg1024
I165
sg1025
I3523
sg1026
I1160
sg1027
I1027
sg1028
I4328
sg1029
I3070
sg1030
I4371
sg1031
I4420
sg1032
I3442
sg1033
I4132
sg1034
I2973
sg1035
I2207
sg1036
I633
sg1037
I1226
sg1038
I3149
sg1039
I1971
sg1040
I3627
sg1041
I1914
sg1042
I1080
sg1043
I1872
sg1044
I2320
sg1045
I4127
sg1046
I3889
sg1047
I331
sg1048
I4231
sg1049
I2537
sS'6'
I2314
sg1050
I1636
sg1051
I635
sg1052
I3868
sg1053
I504
sg1054
I4172
sg1055
I2939
sg1056
I3001
sg1057
I2557
sg1058
I1880
sg1059
I839
sg1060
I1599
sg1061
I338
sg1062
I3273
sg1063
I1097
sg1064
I2437
sg1065
I2546
sg1066
I2567
sg1067
I944
sg1068
I4061
sg1069
I1648
sg1070
I3443
sg1071
I2740
sg1072
I2635
sg1073
I1919
sg1074
I1777
sg1075
I1079
sg1076
I2417
sg1077
I3483
sg1078
I2687
sg1079
I3486
sg1080
I2482
sg1081
I4366
sg1082
I1807
sg1083
I932
sg1084
I3864
sg1085
I3915
sg1086
I881
sg1087
I1911
sg1088
I1944
sg1089
I417
sg1090
I1753
sg1091
I2789
sg1092
I2104
sg1093
I2265
sg1094
I2909
sg1095
I4208
sg1096
I3822
sg1097
I2101
sg1098
I494
sg1099
I2298
sg1100
I1553
sg1101
I4080
sg1102
I4041
sg1103
I1907
sg1104
I3922
sg1105
I607
sg1106
I1681
sg1107
I3342
sg1108
I1780
sg1109
I3071
sg1110
I4307
sg1111
I1469
sg1112
I3279
sg1113
I4284
sg1114
I4334
sg1115
I3068
sS'E'
I88
sg1116
I4340
sg1117
I877
sg1118
I4452
sg1119
I204
sg1120
I2980
sg1121
I1592
sg1122
I2141
sg1123
I3265
sg1124
I3141
sg1125
I4335
sg1126
I2826
sg1127
I340
sg1128
I4299
sg1129
I1628
sg1130
I3997
sg1131
I4002
sg1132
I3148
sg1133
I744
sg1134
I205
sg1135
I3679
sg1136
I1716
sg1137
I4285
sg1138
I163
sg1139
I4312
sg1140
I845
sg1141
I3454
sg1142
I2040
sg1143
I810
sg1144
I1947
sg1145
I4182
sg1146
I1337
sg1147
I1024
sg1148
I276
sg1149
I1528
sg1150
I996
sg1151
I487
sg1152
I3223
sg1153
I823
sg1154
I3146
sg1155
I1035
sg1156
I448
sg1157
I2055
sg1158
I915
sg1159
I2887
sg1160
I2451
sg1161
I4451
sg1162
I2042
sg1163
I921
sg1164
I425
sg1165
I2190
sg1166
I383
sg1167
I1821
sg1168
I2058
sg1169
I293
sg1170
I1297
sg1171
I4267
sg1172
I65
sg1173
I1804
sg1174
I370
sg1175
I137
sg1176
I1270
sg1177
I51
sg1178
I1106
sg1179
I1516
sg1180
I1510
sg1181
I4510
sg1182
I3558
sg1183
I1041
sg1184
I54
sg1185
I351
sg1186
I1964
sg1187
I2805
sg1188
I420
sg1189
I1731
sg1190
I2193
sg1191
I3062
sg1192
I4315
sg1193
I82
sg1194
I2854
sg1195
I3497
sg1196
I3275
sg1197
I855
sg1198
I2702
sg1199
I3855
sg1200
I2639
sg1201
I1673
sg1202
I3226
sg1203
I3505
sg1204
I1420
sg1205
I2340
sg1206
I1537
sg1207
I352
sg1208
I1986
sg1209
I1136
sg1210
I2769
sg1211
I2109
sg1212
I2770
sg1213
I3693
sg1214
I1634
sg1215
I1285
sg1216
I973
sg1217
I2383
sg1218
I745
sg1219
I4217
sg1220
I2929
sg1221
I2848
sg1222
I4260
sg1223
I160
sg1224
I3436
sg1225
I2904
sg1226
I2356
sg1227
I793
sg1228
I1282
sg1229
I2266
sg1230
I319
sg1231
I2594
sg1232
I2423
sg1233
I1353
sg1234
I1020
sg1235
I1031
sg1236
I2580
sg1237
I450
sg1238
I206
sg1239
I3905
sg1240
I4000
sg1241
I3772
sg1242
I2782
sg1243
I2148
sg1244
I3960
sg1245
I550
sg1246
I2136
sg1247
I736
sg1248
I1074
sg1249
I347
sg1250
I2621
sg1251
I3575
sg1252
I219
sg1253
I1088
sg1254
I713
sg1255
I2153
sg1256
I735
sg1257
I2682
sg1258
I576
sg1259
I838
sg1260
I3017
sg1261
I4131
sg1262
I3372
sg1263
I1002
sg1264
I374
sg1265
I3430
sg1266
I3629
sg1267
I2757
sg1268
I13
sg1269
I1478
sg1270
I4306
sg1271
I1018
sg1272
I698
sg1273
I198
sg1274
I1974
sg1275
I2270
sg1276
I150
sg1277
I1172
sg1278
I2467
sg1279
I485
sg1280
I1890
sg1281
I1358
sg1282
I3266
sg1283
I779
sg1284
I2969
sg1285
I1823
sg1286
I2792
sg1287
I4360
sg1288
I3246
sg1289
I2941
sg1290
I3478
sg1291
I317
sg1292
I3869
sg1293
I885
sg1294
I1268
sg1295
I1301
sg1296
I3271
sg1297
I1043
sg1298
I2408
sg1299
I3269
sg1300
I591
sg1301
I1819
sg1302
I2456
sg1303
I3009
sg1304
I3415
sg1305
I463
sg1306
I3538
sg1307
I2029
sg1308
I1489
sg1309
I4194
sg1310
I3095
sg1311
I2611
sg1312
I3322
sg1313
I667
sg1314
I4280
sg1315
I4042
sg1316
I218
sg1317
I2454
sg1318
I441
sg1319
I1982
sg1320
I1797
sg1321
I2110
sg1322
I1866
sg1323
I3356
sg1324
I872
sg1325
I4409
sg1326
I4176
sg1327
I3609
sg1328
I613
sg1329
I207
sg1330
I1824
sg1331
I3092
sS'F'
I1961
sg1332
I3041
sg1333
I3034
sg1334
I379
sg1335
I3796
sg1336
I510
sg1337
I1224
sg1338
I2107
sg1339
I271
sg1340
I3500
sg1341
I2654
sg1342
I4179
sg1343
I2570
sg1344
I1007
sg1345
I4301
sg1346
I2163
sg1347
I1100
sg1348
I2835
sg1349
I3367
sg1350
I2357
sg1351
I1058
sg1352
I3856
sg1353
I2884
sg1354
I1050
sg1355
I2080
sg1356
I3724
sg1357
I619
sg1358
I348
sg1359
I1494
sg1360
I3413
sg1361
I3390
sg1362
I2491
sg1363
I1152
sg1364
I2872
sg1365
I3668
sg1366
I4100
sg1367
I262
sg1368
I585
sg1369
I3678
sg1370
I4316
sg1371
I2983
sg1372
I3188
sg1373
I4358
sg1374
I4368
sg1375
I3735
sg1376
I3392
sg1377
I1902
sg1378
I3164
sg1379
I2555
sg1380
I255
sg1381
I4069
sg1382
I3353
sg1383
I1674
sg1384
I3355
sg1385
I1596
sg1386
I3334
sg1387
I1946
sg1388
I1374
sg1389
I2903
sg1390
I2560
sg1391
I3571
sg1392
I476
sg1393
I1477
sS'1'
I1067
sg1394
I4121
sg1395
I2527
sg1396
I750
sg1397
I171
sg1398
I1465
sS'H'
I1174
sg1399
I3312
sg1400
I230
sg1401
I1604
sg1402
I2161
sg1403
I2831
sg1404
I1725
sg1405
I3596
sg1406
I1292
sg1407
I797
sg1408
I3402
sg1409
I4079
sg1410
I473
sg1411
I2151
sg1412
I2539
sg1413
I643
sg1414
I3089
sg1415
I2515
sS'j'
I3823
sg1416
I696
sg1417
I2954
sg1418
I827
sg1419
I2409
sg1420
I1390
sg1421
I565
sg1422
I3165
sg1423
I3752
sg1424
I874
sg1425
I3564
sg1426
I3683
sg1427
I1618
sg1428
I4468
sg1429
I1454
sg1430
I2793
sg1431
I3890
sg1432
I369
sg1433
I595
sg1434
I4008
sg1435
I2130
sg1436
I3453
sg1437
I1055
sg1438
I4170
sg1439
I3052
sg1440
I4298
sg1441
I2028
sg1442
I427
sg1443
I34
sg1444
I2188
sg1445
I2115
sg1446
I3375
sg1447
I4060
sg1448
I3598
sg1449
I3180
sg1450
I578
sg1451
I2019
sg1452
I117
sg1453
I3383
sg1454
I3414
sg1455
I4497
sg1456
I223
sg1457
I4024
sg1458
I2374
sg1459
I2077
sg1460
I2727
sg1461
I808
sg1462
I1228
sg1463
I3308
sg1464
I3778
sg1465
I2125
sg1466
I836
sg1467
I726
sg1468
I1981
sg1469
I686
sg1470
I174
sg1471
I253
sg1472
I514
sg1473
I1359
sg1474
I203
sg1475
I111
sg1476
I1150
sg1477
I1140
sg1478
I3734
sg1479
I29
sg1480
I46
sg1481
I3076
sg1482
I3059
sg1483
I4224
sg1484
I551
sg1485
I1346
sg1486
I1348
sg1487
I4274
sg1488
I3127
sg1489
I4142
sg1490
I4051
sg1491
I2587
sg1492
I3002
sg1493
I2614
sg1494
I221
sg1495
I2484
sg1496
I4398
sg1497
I1945
sg1498
I2468
sg1499
I4407
sg1500
I185
sg1501
I2050
sg1502
I2378
sg1503
I3770
sg1504
I4509
sg1505
I715
sg1506
I3603
sg1507
I3700
sg1508
I4481
sg1509
I3496
sg1510
I1792
sg1511
I3690
sg1512
I2335
sg1513
I1144
sg1514
I2989
sg1515
I3243
sg1516
I3721
sg1517
I1627
sg1518
I862
sg1519
I3561
sg1520
I997
sg1521
I3716
sg1522
I754
sg1523
I2116
sg1524
I1923
sg1525
I1115
sg1526
I2368
sg1527
I315
sg1528
I291
sg1529
I2011
sg1530
I2023
sg1531
I2695
sg1532
I2316
sg1533
I784
sg1534
I4441
sg1535
I923
sg1536
I2647
sS'G'
I1352
sg1537
I2753
sg1538
I2106
sg1539
I3966
sg1540
I1207
sg1541
I3145
sg1542
I4088
sg1543
I211
sg1544
I751
sg1545
I1216
sg1546
I4295
sg1547
I2810
sg1548
I2271
sg1549
I3815
sg1550
I1975
sg1551
I2415
sg1552
I3211
sg1553
I782
sg1554
I3499
sg1555
I4210
sg1556
I2138
sg1557
I421
sg1558
I1320
sg1559
I4119
sg1560
I3660
sg1561
I3520
sg1562
I984
sg1563
I1887
sg1564
I17
sg1565
I3651
sg1566
I1915
sg1567
I1258
sg1568
I4431
sg1569
I2487
sg1570
I1802
sg1571
I1925
sg1572
I3419
sg1573
I10
sg1574
I1867
sg1575
I4064
sg1576
I1171
sg1577
I2203
sg1578
I3836
sg1579
I1559
sg1580
I1629
sg1581
I2624
sg1582
I85
sg1583
I3237
sg1584
I491
sg1585
I1475
sg1586
I201
sg1587
I429
sg1588
I1059
sg1589
I1497
sg1590
I1950
sg1591
I1787
sg1592
I3852
sg1593
I1816
sg1594
I101
sg1595
I1810
sg1596
I2626
sg1597
I4458
sg1598
I4344
sg1599
I2323
sg1600
I994
sg1601
I2722
sS'2'
I148
sg1602
I4050
sg1603
I2672
sg1604
I2725
sg1605
I3875
sg1606
I1996
sg1607
I501
sg1608
I3108
sg1609
I3394
sg1610
I817
sg1611
I1625
sg1612
I1805
sg1613
I3948
sg1614
I3231
sg1615
I2582
sg1616
I47
sg1617
I412
sg1618
I1763
sg1619
I2059
sg1620
I3745
sg1621
I840
sg1622
I2450
sg1623
I409
sg1624
I3227
sg1625
I4186
sg1626
I4291
sg1627
I857
sg1628
I4109
sg1629
I256
sg1630
I1781
sg1631
I1275
sg1632
I35
sg1633
I1300
sg1634
I320
sg1635
I2403
sg1636
I3485
sg1637
I1490
sg1638
I4191
sg1639
I2283
sg1640
I2718
sS'r'
I2325
sg1641
I2691
sg1642
I2420
sg1643
I3175
sg1644
I2776
sg1645
I3044
sg1646
I2868
sg1647
I9
sg1648
I2295
sg1649
I2711
sg1650
I1240
sg1651
I2572
sg1652
I3187
sg1653
I2195
sg1654
I3384
sg1655
I870
sg1656
I1199
sg1657
I1368
sg1658
I3989
sg1659
I1834
sg1660
I2264
sg1661
I1970
sg1662
I1260
sg1663
I2054
sg1664
I1468
sg1665
I2984
sg1666
I608
sg1667
I3541
sg1668
I1253
sg1669
I3684
sg1670
I3794
sg1671
I781
sg1672
I544
sg1673
I2086
sg1674
I1948
sg1675
I1463
sg1676
I2751
sg1677
I4476
sg1678
I580
sg1679
I701
sg1680
I3614
sg1681
I2169
sg1682
I3262
sg1683
I1141
sg1684
I1370
sg1685
I3400
sg1686
I2606
sg1687
I55
sg1688
I1170
sg1689
I3281
sg1690
I3123
sg1691
I1696
sg1692
I4417
sg1693
I2413
sg1694
I648
sg1695
I2396
sg1696
I1378
sg1697
I3045
sg1698
I226
sg1699
I3566
sg1700
I2957
sg1701
I4003
sg1702
I3646
sg1703
I3336
sg1704
I2410
sg1705
I3630
sg1706
I2257
sg1707
I1839
sg1708
I1786
sg1709
I2684
sg1710
I1471
sg1711
I3776
sg1712
I3448
sg1713
I3019
sg1714
I4490
sg1715
I1785
sg1716
I1726
sg1717
I359
sg1718
I1096
sg1719
I1924
sg1720
I1205
sg1721
I3297
sg1722
I3914
sg1723
I349
sg1724
I2290
sg1725
I397
sg1726
I2545
sg1727
I1330
sg1728
I1847
sg1729
I691
sg1730
I1479
sg1731
I156
sg1732
I804
sg1733
I681
sg1734
I3591
sg1735
I2905
sg1736
I890
sg1737
I3298
sg1738
I3287
sg1739
I3178
sg1740
I2885
sg1741
I2970
sg1742
I2669
sg1743
I1521
sg1744
I1444
sg1745
I196
sg1746
I4253
sg1747
I3040
sg1748
I969
sg1749
I62
sg1750
I1197
sg1751
I1313
sg1752
I2438
sg1753
I2435
sg1754
I603
sg1755
I2648
sg1756
I2771
sg1757
I3711
sg1758
I1891
sg1759
I292
sg1760
I3291
sg1761
I3194
sg1762
I2630
sg1763
I800
sg1764
I3048
sg1765
I1610
sg1766
I978
sg1767
I1230
sg1768
I2490
sg1769
I1580
sg1770
I4429
sg1771
I2817
sg1772
I3549
sg1773
I468
sg1774
I2532
sg1775
I4239
sg1776
I2875
sg1777
I1289
sg1778
I1036
sg1779
I1748
sg1780
I1524
sg1781
I3654
sg1782
I2778
sg1783
I2277
sg1784
I483
sg1785
I4124
sg1786
I4139
sg1787
I3022
sg1788
I1679
sg1789
I3208
sg1790
I1284
sg1791
I3779
sg1792
I2247
sg1793
I4007
sg1794
I2951
sg1795
I1203
sg1796
I1660
sg1797
I1032
sg1798
I1822
sg1799
I2880
sg1800
I2382
sg1801
I3576
sg1802
I3694
sg1803
I2027
sg1804
I3389
sg1805
I634
sg1806
I3103
sg1807
I3172
sg1808
I1399
sg1809
I3259
sS'3'
I380
sg1810
I3661
sg1811
I2259
sg1812
I3814
sg1813
I176
sg1814
I3594
sg1815
I2214
sg1816
I1462
sg1817
I4365
sg1818
I4251
sg1819
I4479
sg1820
I484
sg1821
I2902
sg1822
I796
sg1823
I3697
sg1824
I113
sg1825
I4205
sg1826
I2517
sg1827
I3781
sg1828
I545
sg1829
I3625
sg1830
I1078
sg1831
I1184
sg1832
I3203
sg1833
I1057
sg1834
I4237
sg1835
I4506
sg1836
I2462
sg1837
I3621
sg1838
I774
sg1839
I2385
sS'C'
I3560
sg1840
I1219
sg1841
I991
sg1842
I2492
sg1843
I3469
sg1844
I519
sg1845
I3256
sg1846
I654
sg1847
I1178
sg1848
I1103
sg1849
I3842
sg1850
I402
sg1851
I3406
sg1852
I1538
sg1853
I3253
sg1854
I364
sg1855
I548
sg1856
I676
sg1857
I3410
sg1858
I2001
sg1859
I3250
sg1860
I4419
sg1861
I2178
sg1862
I1451
sg1863
I786
sg3343
I1366
sg1865
I1123
sg1866
I898
sg1867
I3984
sg1868
I2347
sg1869
I42
sg1870
I2601
sg1871
I677
sg1872
I1849
sg1873
I3859
sg1874
I748
sg1875
I2035
sg1876
I3005
sg1877
I1508
sg1878
I24
sg1879
I901
sg1880
I2047
sg1881
I663
sg1882
I3808
sg1883
I1504
sg1884
I3639
sg1885
I3051
sg1886
I1118
sg1887
I3140
sg1888
I1441
sg1889
I1557
sg1890
I3944
sg1891
I3941
sg1892
I1309
sg1893
I1978
sg1894
I3635
sg1895
I2847
sg1896
I4188
sg1897
I3763
sg1898
I1870
sg1899
I1677
sg1900
I2170
sg1901
I1483
sg1902
I426
sg1903
I851
sg1904
I1264
sg1905
I1699
sg1906
I3300
sg1907
I4460
sg1908
I475
sg1909
I4086
sg1910
I2184
sg1911
I2524
sg1912
I2891
sg1913
I2504
sg1914
I737
sg1915
I3445
sg1916
I1332
sg1917
I4516
sg1918
I2488
sg1919
I864
sg1920
I2469
sg1921
I337
sg1922
I4087
sg1923
I4446
sg1924
I4319
sg1925
I2503
sg1926
I1637
sg1927
I3579
sg1928
I4151
sg1929
I3692
sg1930
I2756
sg1931
I2637
sg1932
I105
sg1933
I1003
sg1934
I3427
sS's'
I722
sg1935
I2226
sg1936
I1951
sg1937
I4192
sg1938
I1165
sg1939
I1743
sg1940
I1791
sg1941
I3171
sg1942
I2017
sg1943
I1711
sg1944
I1133
sg1945
I3624
sg1946
I3056
sg1947
I558
sg1948
I4348
sg1949
I2053
sg1950
I3562
sS'I'
I168
sg1951
I4143
sg1952
I350
sg1953
I887
sg1954
I2947
sg1955
I129
sg1956
I316
sg1957
I1070
sg1958
I2575
sg1959
I747
sg1960
I3689
sg1961
I284
sg1962
I2564
sg1963
I3319
sg1964
I2471
sg1965
I1052
sg1966
I372
sg1967
I1137
sg1968
I2959
sg1969
I1274
sg1970
I775
sg1971
I231
sg1972
I2000
sg1973
I564
sg1974
I1766
sg1975
I4357
sg1976
I382
sg1977
I3471
sg1978
I3525
sg1979
I1072
sg1980
I891
sg1981
I3487
sg1982
I731
sg1983
I4422
sg1984
I4489
sg1985
I2122
sg1986
I712
sg1987
I1908
sg1988
I2876
sg1989
I4472
sg1990
I1739
sg1991
I2823
sg1992
I4505
sg1993
I4342
sg1994
I2688
sg1995
I3465
sg1996
I3981
sg1997
I569
sg1998
I4053
sg1999
I2407
sg2000
I3902
sS'n'
I3551
sg2001
I970
sg2002
I2480
sg2003
I4144
sg2004
I3370
sg2005
I2154
sg2006
I1227
sg2007
I1466
sg2008
I2897
sg2009
I2341
sg2010
I716
sg2011
I3706
sg2012
I2261
sg2013
I3675
sS'4'
I373
sg2014
I934
sg2015
I1540
sg2016
I411
sg2017
I2052
sg2018
I2962
sg2019
I4099
sg2020
I2836
sg2021
I2117
sg2022
I289
sg2023
I1206
sg2024
I2645
sg2025
I4361
sg2026
I660
sg2027
I3093
sg2028
I764
sg2029
I4082
sg2030
I1238
sg2031
I1049
sg2032
I4117
sg2033
I521
sg2034
I587
sg2035
I498
sg2036
I4424
sg2037
I1176
sg2038
I3973
sg2039
I2634
sg2040
I1371
sg2041
I869
sg2042
I3555
sg2043
I3039
sg2044
I1405
sg2045
I674
sg2046
I3274
sg2047
I1790
sg2048
I610
sg2049
I4233
sg2050
I186
sg2051
I2006
sg2052
I1321
sg2053
I4322
sg2054
I506
sg2055
I3619
sg2056
I3163
sg2057
I2589
sg2058
I1759
sg2059
I384
sg2060
I1329
sg2061
I832
sg2062
I311
sg2063
I2439
sg2064
I1967
sg2065
I2755
sg2066
I1649
sg2067
I4300
sg2068
I1498
sg2069
I3613
sg2070
I131
sg2071
I1869
sg2072
I1686
sg2073
I134
sg2074
I2812
sg2075
I2448
sg2076
I2105
sg2077
I3084
sg2078
I3834
sg2079
I4355
sg2080
I1583
sg2081
I167
sg2082
I4230
sg2083
I2179
sg2084
I1044
sg2085
I188
sg2086
I3993
sg2087
I3366
sg2088
I1376
sg2089
I2411
sg2090
I4085
sg2091
I3058
sg2092
I2916
sg2093
I1262
sg2094
I2972
sg2095
I2685
sg2096
I469
sg2097
I1796
sg2098
I1801
sg2099
I1130
sg2100
I37
sg2101
I2146
sg2102
I1803
sg2103
I1266
sg2104
I41
sg2105
I1755
sg2106
I806
sg2107
I2519
sg2108
I3452
sg2109
I3580
sg2110
I48
sg2111
I3285
sg2112
I1742
sg2113
I3999
sg2114
I3179
sg2115
I39
sg2116
I2825
sg2117
I3747
sg2118
I3423
sg2119
I2698
sg2120
I3713
sg2121
I361
sg2122
I2315
sg2123
I447
sg2124
I2273
sg2125
I243
sg2126
I3470
sg2127
I3379
sg2128
I2618
sg2129
I1083
sg2130
I1530
sg2131
I561
sg2132
I1988
sg2133
I31
sg2134
I3526
sg2135
I1826
sg2136
I2609
sg2137
I2819
sg2138
I953
sg2139
I995
sg2140
I3147
sg2141
I2191
sg2142
I4297
sg2143
I2878
sg2144
I933
sg2145
I1842
sg2146
I601
sg2147
I2922
sg2148
I762
sg2149
I4428
sg2150
I4058
sg2151
I2455
sg2152
I2216
sg2153
I4104
sg2154
I2988
sg2155
I549
sg2156
I742
sg2157
I6
sg2158
I3026
sg2159
I4155
sg2160
I2613
sg2161
I3557
sg2162
I1910
sg2163
I1125
sg2164
I802
sg2165
I1576
sg2166
I1356
sg2167
I1089
sg2168
I527
sg2169
I3543
sg2170
I1010
sg2171
I3182
sg2172
I1038
sg2173
I3329
sg2174
I1051
sg2175
I3292
sg2176
I3344
sg2177
I452
sg2178
I2796
sg2179
I1646
sg2180
I966
sg2181
I3363
sg2182
I4474
sg2183
I505
sg2184
I916
sg2185
I1934
sg2186
I1361
sg2187
I297
sg2188
I3139
sg2189
I3282
sg2190
I3473
sg2191
I1425
sg2192
I2094
sg2193
I3617
sg2194
I399
sg2195
I3844
sg2196
I3917
sg2197
I1372
sg2198
I2579
sg2199
I4190
sg2200
I152
sg2201
I606
sg2202
I3241
sg2203
I2553
sg2204
I95
sg2205
I865
sg2206
I2162
sg2207
I2670
sg2208
I1040
sg2209
I4349
sg2210
I3082
sg2211
I2518
sg2212
I2466
sg2213
I4013
sg2214
I3343
sg2215
I4483
sg2216
I1071
sg2217
I3601
sg2218
I110
sg2219
I497
sg2220
I3037
sg2221
I4197
sg2222
I1338
sg2223
I1143
sg2224
I1324
sg2225
I4279
sg2226
I919
sg2227
I214
sg2228
I1697
sg2229
I624
sg2230
I2937
sg2231
I3106
sg2232
I2465
sg2233
I706
sg2234
I2114
sg2235
I343
sg2236
I1109
sg2237
I1220
sS'5'
I2312
sg2238
I259
sg2239
I4232
sg2240
I3514
sg2241
I1336
sg2242
I15
sg2243
I2797
sg2244
I1168
sg2245
I740
sg2246
I893
sg2247
I971
sg2248
I3688
sg2249
I1277
sg2250
I3519
sg2251
I1665
sg2252
I360
sg2253
I1185
sg2254
I3884
sg2255
I3096
sg2256
I1402
sg2257
I1744
sg2258
I837
sg2259
I859
sg2260
I115
sg2261
I1520
sg2262
I2043
sg2263
I2761
sg2264
I2681
sg2265
I632
sg2266
I1334
sg2267
I2177
sg2268
I3177
sg2269
I815
sg2270
I50
sg2271
I3314
sg2272
I3391
sg2273
I1654
sg2274
I3358
sg2275
I2296
sg2276
I3416
sg2277
I2676
sg2278
I3498
sg2279
I3409
sg2280
I3003
sg2281
I729
sg2282
I1977
sg2283
I4241
sg2284
I1317
sg2285
I2907
sg2286
I1006
sg2287
I1720
sg2288
I1638
sg2289
I1436
sg2290
I2093
sg2291
I4196
sg2292
I4369
sg2293
I1727
sg2294
I630
sg2295
I1413
sg2296
I4257
sg2297
I3970
sg2298
I3161
sg2299
I3315
sg2300
I433
sg2301
I4488
sg2302
I77
sg2303
I1331
sg2304
I1632
sg2305
I4094
sg2306
I246
sg2307
I4021
sg2308
I3249
sg2309
I1700
sg2310
I1894
sg2311
I3584
sg2312
I2311
sg2313
I2334
sg2314
I1666
sg2315
I3534
sg2316
I4034
sg2317
I2926
sg2318
I3906
sg2319
I2401
sg2320
I3268
sg2321
I2348
sg2322
I1957
sg2323
I2147
sg2324
I3553
sg2325
I1377
sg2326
I3218
sg2327
I4461
sg2328
I778
sg2329
I1432
sg2330
I2976
sg2331
I3952
sg2332
I3296
sg2333
I4492
sg2334
I4283
sg2335
I767
sg2336
I1769
sg2337
I931
sg2338
I1234
sg2339
I2371
sg2340
I2016
sg2341
I139
sg2342
I4411
sg2343
I3825
sg2344
I378
sg2345
I1263
sg2346
I213
sg2347
I2145
sg2348
I3622
sg2349
I2274
sg2350
I1728
sg2351
I3028
sg2352
I3918
sg2353
I2223
sg2354
I1241
sg2355
I1906
sg2356
I2321
sg2357
I3197
sg2358
I1684
sg2359
I3524
sg2360
I449
sg2361
I4444
sg2362
I1689
sg2363
I2269
sg2364
I2481
sg2365
I4158
sg2366
I3126
sg2367
I2172
sg2368
I4347
sg2369
I4445
sg2370
I1567
sg2371
I4243
sg2372
I3648
sg2373
I992
sg2374
I2748
sg2375
I759
sg2376
I2824
sg2377
I1014
sg2378
I2303
sg2379
I581
sg2380
I3865
sg2381
I4363
sg2382
I3283
sg2383
I1202
sg2384
I3200
sg2385
I2134
sg2386
I2616
sg2387
I1591
sg2388
I3733
sS'K'
I3649
sg2389
I1659
sg2390
I4277
sg2391
I809
sg2392
I1021
sg2393
I1034
sg2394
I3921
sg2395
I2921
sg2396
I1011
sg2397
I528
sg2398
I308
sg2399
I2775
sg2400
I2369
sg2401
I1732
sg2402
I4095
sg2403
I4207
sg2404
I3302
sg2405
I4040
sg2406
I2135
sg2407
I3848
sg2408
I3641
sg2409
I4359
sg2410
I60
sg2411
I391
sg2412
I4108
sg2413
I2375
sg2414
I116
sg2415
I18
sg2416
I432
sg2417
I4235
sg2418
I714
sg2419
I1502
sg2420
I785
sg2421
I4189
sg2422
I2598
sg2423
I1645
sg2424
I1813
sg2425
I4486
sg2426
I3862
sg2427
I1850
sg2428
I398
sg2429
I1179
sg2430
I3748
sg2431
I4107
sg2432
I2498
sg2433
I2352
sg2434
I3420
sg2435
I2649
sg2436
I2349
sg2437
I844
sg2438
I1235
sg2439
I3101
sg2440
I1851
sg2441
I3456
sg2442
I3365
sg2443
I3545
sg2444
I2544
sg2445
I1005
sg2446
I366
sg2447
I3153
sg2448
I3477
sg2449
I3433
sg2450
I1585
sg2451
I579
sg2452
I387
sg2453
I3785
sg2454
I4450
sg2455
I66
sg2456
I285
sg2457
I1196
sg2458
I805
sg2459
I3583
sg2460
I258
sg2461
I3221
sg2462
I478
sg2463
I2942
sg2464
I2241
sg2465
I3385
sg2466
I1345
sg2467
I792
sg2468
I2319
sg2469
I2638
sg2470
I1333
sg2471
I4160
sg2472
I480
sg2473
I1972
sg2474
I2245
sg2475
I3916
sg2476
I4333
sg2477
I908
sg2478
I1177
sg2479
I1453
sg2480
I2360
sg2481
I1087
sg2482
I3559
sg2483
I1098
sS'v'
I2326
sg2484
I3324
sg2485
I665
sg2486
I169
sg2487
I2155
sg2488
I2723
sg2489
I3236
sg2490
I2534
sg2491
I4418
sg2492
I3339
sg2493
I1668
sg2494
I4345
sg2495
I3232
sg2496
I4209
sg2497
I3527
sg2498
I173
sg2499
I3347
sg2500
I2289
sg2501
I4386
sg2502
I2585
sg2503
I2620
sg2504
I1993
sg2505
I3354
sg2506
I2612
sg2507
I72
sg2508
I4244
sg2509
I4118
sg2510
I3644
sg2511
I210
sg2512
I1004
sg2513
I1395
sg2514
I2595
sg2515
I3544
sg2516
I927
sg2517
I1248
sg2518
I1782
sg2519
I1719
sg2520
I542
sg2521
I2391
sg2522
I3926
sg2523
I911
sg2524
I1594
sg2525
I2284
sg2526
I81
sg2527
I718
sg2528
I980
sg2529
I2724
sg2530
I2690
sg2531
I1411
sg2532
I4437
sg2533
I121
sg2534
I2260
sg2535
I2646
sg2536
I2999
sg2537
I147
sS'a'
I140
sg2538
I1535
sg2539
I1999
sg2540
I1601
sg2541
I2240
sg2542
I639
sg2543
I1499
sg2544
I1584
sg2545
I2268
sg2546
I588
sg2547
I2279
sg2548
I112
sg2549
I2400
sg2550
I868
sg2551
I3158
sg2552
I1943
sg2553
I612
sg2554
I328
sg2555
I2248
sg2556
I3756
sg2557
I2599
sg2558
I1717
sg2559
I2642
sg2560
I2924
sg2561
I181
sg2562
I4397
sg2563
I1439
sg2564
I4318
sg2565
I2014
sg2566
I3612
sg2567
I1281
sg2568
I4462
sg2569
I2743
sg2570
I2119
sg2571
I1311
sg2572
I2350
sg2573
I401
sg2574
I1261
sg2575
I2511
sg2576
I3369
sg2577
I405
sg2578
I301
sg2579
I3104
sg2580
I1837
sg2581
I1319
sg2582
I788
sg2583
I3350
sg2584
I3764
sg2585
I4353
sg2586
I57
sg2587
I2559
sg2588
I4153
sg2589
I4276
sg2590
I1956
sg2591
I3235
sg2592
I1099
sS'L'
I532
sg2593
I2129
sg2594
I3528
sg2595
I472
sg2596
I3388
sg2597
I1085
sg2598
I801
sg2599
I2964
sg2600
I2443
sg2601
I3120
sg2602
I3340
sg2603
I1838
sg2604
I2862
sg2605
I583
sg2606
I4227
sg2607
I2102
sg2608
I3107
sg2609
I143
sg2610
I1105
sg2611
I191
sg2612
I4206
sg2613
I1298
sg2614
I1569
sg2615
I3605
sg2616
I3840
sg2617
I4388
sg2618
I3818
sg2619
I3992
sg2620
I1380
sg2621
I3663
sg2622
I2213
sg2623
I2747
sg2624
I3134
sg2625
I2674
sg2626
I1533
sg2627
I679
sg2628
I3105
sg2629
I1980
sg2630
I1472
sg2631
I227
sg2632
I3258
sg2633
I1881
sg2634
I2233
sg2635
I4413
sg2636
I3144
sg2637
I707
sg2638
I2833
sg2639
I45
sg2640
I3907
sg2641
I1784
sg2642
I2651
sg2643
I4115
sg2644
I3097
sg2645
I3377
sg2646
I758
sg2647
I1132
sg2648
I3458
sg2649
I2237
sg2650
I2434
sg2651
I3640
sg2652
I4404
sg2653
I4517
sg2654
I2592
sg2655
I658
sS'7'
I3765
sg2656
I1124
sg2657
I2729
sg2658
I458
sg2659
I1938
sg2660
I1119
sg2661
I2944
sg2662
I4408
sg2663
I1551
sg2664
I3450
sg2665
I986
sg2666
I2505
sg2667
I4184
sg2668
I3515
sg2669
I2217
sg2670
I1012
sg2671
I3264
sg2672
I4236
sg2673
I2930
sg2674
I1437
sg2675
I2007
sg2676
I2978
sg2677
I2355
sg2678
I727
sg2679
I1678
sg2680
I1076
sg2681
I3090
sg2682
I902
sg2683
I1954
sg2684
I336
sg2685
I3759
sg2686
I4198
sg2687
I2457
sg2688
I1771
sg2689
I1552
sg2690
I1082
sg2691
I4278
sg2692
I4067
sS'w'
I4255
sg2693
I664
sg2694
I3795
sg2695
I539
sg2696
I682
sg2697
I3439
sg2698
I3843
sg2699
I3021
sg2700
I2180
sg2701
I1276
sg2702
I260
sg2703
I1832
sg2704
I2529
sg2705
I3883
sg2706
I1927
sg2707
I3399
sg2708
I2253
sg2709
I1488
sg2710
I4402
sg2711
I1272
sg2712
I3116
sg2713
I3490
sg2714
I959
sg2715
I2222
sg2716
I1547
sg2717
I3411
sg2718
I958
sg2719
I795
sg2720
I2015
sg2721
I734
sg2722
I1909
sg2723
I1162
sg2724
I1593
sg2725
I4302
sg2726
I2968
sg2727
I2392
sg2728
I904
sg2729
I1643
sg2730
I2883
sg2731
I3792
sg2732
I909
sg2733
I2643
sg2734
I4379
sg2735
I2844
sg2736
I3744
sg2737
I983
sg2738
I270
sg2739
I2092
sg2740
I1775
sg2741
I4089
sg2742
I2373
sg2743
I2427
sg2744
I3939
sg2745
I3521
sg2746
I1363
sg2747
I1213
sg2748
I3574
sg2749
I2759
sg2750
I659
sg2751
I3435
sg2752
I4249
sg2753
I2090
sg2754
I1112
sg2755
I4046
sg2756
I1223
sg2757
I950
sg2758
I2683
sg2759
I1554
sg2760
I333
sg2761
I4216
sg2762
I773
sg2763
I1385
sg2764
I690
sg2765
I3467
sg2766
I4439
sg2767
I3360
sg2768
I3212
sg2769
I187
sg2770
I671
sg2771
I2660
sg2772
I2763
sg2773
I892
sg2774
I11
sg2775
I4200
sg2776
I264
sg2777
I3395
sg2778
I1582
sg2779
I1464
sg2780
I234
sg2781
I3091
sg2782
I523
sg2783
I4193
sg2784
I1092
sg2785
I1169
sg2786
I3431
sg2787
I1901
sg2788
I4120
sg2789
I849
sg2790
I1384
sg2791
I3532
sg2792
I2278
sg2793
I1527
sg2794
I730
sg2795
I3376
sg2796
I2232
sg2797
I2562
sg2798
I388
sg2799
I2591
sg2800
I4081
sg2801
I4346
sg2802
I471
sg2803
I1895
sg2804
I2292
sg2805
I1736
sg2806
I3272
sg2807
I3730
sg2808
I1600
sg2809
I3267
sg2810
I277
sg2811
I3949
sg2812
I344
sg2813
I3719
sg2814
I445
sg2815
I2174
sg2816
I1827
sg2817
I128
sg2818
I3260
sg2819
I1746
sg2820
I1062
sS'M'
I1173
sg2821
I814
sg2822
I2286
sg2823
I649
sg2824
I3550
sg2825
I2082
sg2826
I461
sg2827
I3115
sg2828
I2704
sg2829
I26
sg2830
I2031
sg2831
I419
sg2832
I4376
sg2833
I4027
sg2834
I511
sg2835
I3662
sg2836
I2571
sg2837
I1571
sg2838
I4273
sg2839
I2181
sg2840
I2038
sg2841
I3537
sg2842
I4093
sg2843
I3455
sg2844
I4466
sg2845
I3857
sg2846
I318
sg2847
I3988
sg2848
I568
sg2849
I913
sg2850
I1025
sg2851
I124
sg2852
I2894
sg2853
I3251
sg2854
I3876
sg2855
I4482
sg2856
I900
sg2857
I2489
sg2858
I884
sg2859
I2531
sg2860
I1874
sg2861
I1422
sg2862
I2363
sg2863
I3967
sg2864
I1562
sg2865
I3611
sg2866
I3903
sg2867
I3964
sg2868
I3067
sg2869
I2928
sg2870
I2720
sg2871
I4414
sg2872
I2168
sg2873
I1354
sg2874
I4281
sg2875
I3330
sg2876
I3121
sg2877
I1383
sg2878
I3758
sS'8'
I655
sg2879
I1231
sg2880
I2351
sg2881
I2530
sg2882
I2318
sg2883
I1589
sg2884
I232
sg2885
I2739
sg2886
I1186
sg2887
I2097
sg2888
I2070
sg2889
I2064
sg2890
I1086
sg2891
I1825
sg2892
I2449
sg2893
I4164
sg2894
I1110
sg2895
I1182
sg2896
I2597
sg2897
I3451
sg2898
I2057
sg2899
I3204
sg2900
I1698
sg2901
I3961
sg2902
I4122
sg2903
I1307
sg2904
I1315
sg2905
I2220
sg2906
I2157
sg2907
I2250
sg2908
I2056
sg2909
I4329
sg2910
I2133
sg2911
I3945
sg2912
I2717
sg2913
I3634
sg2914
I4310
sg2915
I248
sg2916
I3760
sg2917
I2738
sg2918
I4264
sg2919
I1683
sg2920
I2602
sg2921
I1747
sg2922
I1617
sg2923
I3152
sg2924
I3242
sg2925
I2108
sg2926
I1702
sg2927
I3088
sg2928
I4495
sg2929
I3725
sg2930
I828
sg2931
I1379
sg2932
I2158
sg2933
I3578
sg2934
I3007
sg2935
I3130
sg2936
I2137
sg2937
I385
sg2938
I1408
sg2939
I225
sg2940
I3986
sg2941
I3170
sg2942
I847
sg2943
I3618
sg2944
I861
sg2945
I4484
sg2946
I3563
sg2947
I3742
sg2948
I3351
sg2949
I708
sg2950
I2787
sg2951
I197
sg2952
I242
sg2953
I4443
sg2954
I935
sg2955
I3880
sg2956
I3959
sg2957
I2522
sg2958
I2370
sg2959
I1991
sg2960
I1341
sg2961
I1737
sg2962
I3181
sg2963
I2063
sg2964
I1127
sg2965
I3707
sg2966
I1369
sg2967
I1305
sg2968
I824
sg2969
I1393
sg2970
I1215
sg2971
I1075
sg2972
I2543
sg2973
I4425
sg2974
I470
sg2975
I418
sg2976
I282
sg2977
I53
sg2978
I3316
sg2979
I2384
sg2980
I4406
sg2981
I597
sg2982
I540
sg2983
I3853
sg2984
I2925
sg2985
I3432
sg2986
I2330
sg2987
I4156
sg2988
I574
sg2989
I732
sg2990
I981
sg2991
I1107
sg2992
I3150
sg2993
I3422
sg2994
I3805
sg2995
I3063
sg2996
I235
sg2997
I2228
sg2998
I2244
sg2999
I2701
sg3000
I2650
sg3001
I274
sg3002
I3718
sg3003
I4134
sg3004
I1364
sg3005
I4248
sg3006
I3509
sg3007
I2376
sg3008
I1675
sg3009
I1153
sg3010
I1885
sg3011
I721
sg3012
I1898
sg3013
I2767
sg3014
I1340
sg3015
I1355
sg3016
I1650
sg3017
I1606
sg3018
I4374
sg3019
I2985
sg3020
I4448
sg3021
I3933
sg3022
I1930
sg3023
I4214
sg3024
I1570
sg3025
I4066
sg3026
I522
sg3027
I1428
sg3028
I3196
sg3029
I1729
sg3030
I979
sg3031
I2804
sg3032
I3421
sg3033
I4084
sg3034
I2663
sg3035
I680
sg3036
I4327
sg3037
I3771
sS'N'
I3616
sg3038
I3216
sg3039
I4392
sg3040
I4128
sg3041
I3858
sg3042
I1519
sg3043
I298
sg3044
I4246
sg3045
I1960
sg3046
I2786
sg3047
I4075
sg3048
I1104
sg3049
I3075
sg3050
I3691
sg3051
I3186
sg3052
I3079
sg3053
I3904
sg3054
I3696
sg3055
I812
sg3056
I3861
sg3057
I2843
sg3058
I1053
sg3059
I3201
sg3060
I534
sg3061
I1433
sg3062
I120
sg3063
I2777
sg3064
I1609
sg3065
I675
sg3066
I3493
sg3067
I2794
sg3068
I1189
sg3069
I451
sg3070
I2358
sg3071
I4501
sg3072
I4221
sg3073
I1325
sg3074
I1450
sg3075
I36
sg3076
I4037
sg3077
I2164
sg3078
I2072
sg3079
I80
sg3080
I1671
sg3081
I194
sg3082
I3510
sg3083
I2765
sg3084
I3418
sg3085
I1120
sg3086
I3176
sg3087
I1222
sg3088
I2839
sg3089
I4149
sg3090
I4022
sg3091
I652
sg3092
I3633
sS'9'
I2447
sg3093
I3900
sg3094
I3793
sg3095
I153
sg3096
I818
sg3097
I329
sg3098
I1884
sg3099
I2855
sg3100
I755
sg3101
I3072
sg3102
I2160
sg3103
I1647
sg3104
I3087
sg3105
I1208
sg3106
I1754
sg3107
I1913
sg3108
I1047
sg3109
I1397
sg3110
I2680
sg3111
I2714
sg3112
I3018
sg3113
I302
sg3114
I2390
sg3115
I1409
sg3116
I1247
sg3117
I2931
sg3118
I1831
sg3119
I917
sg3120
I1427
sg3121
I2958
sg3122
I3513
sg3123
I2799
sg3124
I1335
sg3125
I888
sg3126
I4102
sg3127
I1375
sg3128
I2818
sg3129
I4436
sS'y'
I650
sg3130
I98
sg3131
I3461
sg3132
I2744
sg3133
I614
sg3134
I1983
sg3135
I2065
sg3136
I4465
sg3137
I2766
sg3138
I4381
sg3139
I377
sg3140
I3587
sg3141
I1987
sg3142
I577
sg3143
I1269
sg3144
I2234
sg3145
I2640
sg3146
I437
sg3147
I1548
sg3148
I2764
sg3149
I3474
sg3150
I2736
sg3151
I415
sg3152
I3838
sg3153
I2737
sg3154
I3199
sg3155
I327
sg3156
I2774
sg3157
I3192
sg3158
I3362
sg3159
I267
sg3160
I3531
sg3161
I193
sg3162
I1738
sg3163
I2657
sg3164
I1129
sg3165
I2060
sg3166
I1640
sg3167
I3682
sg3168
I2497
sg3169
I251
sg3170
I3081
sg3171
I107
sg3172
I526
sg3173
I1783
sg3174
I1560
sg3175
I281
sg3176
I850
sg3177
I1064
sg3178
I303
sg3179
I3687
sg3180
I1404
sg3181
I993
sg3182
I4025
sg3183
I396
sg3184
I560
sg3185
I1613
sg3186
I2113
sg3187
I1858
sg3188
I1575
sg3189
I1844
sg3190
I1693
sg3191
I4004
sS'd'
I3873
sg3192
I617
sg3193
I2201
sg3194
I1310
sg3195
I3736
sg3196
I2183
sg3197
I4512
sg3198
I1419
sg3199
I1485
sg3200
I4269
sg3201
I586
sg3202
I3773
sg3203
I4455
sg3204
I3341
sg3205
I2045
sg3206
I2644
sg3207
I3681
sg3208
I3364
sg3209
I442
sg3210
I462
sg3211
I2762
sg3212
I841
sg3213
I599
sg3214
I3710
sg3215
I1539
sg3216
I2267
sg3217
I1841
sg3218
I3193
sg3219
I2945
sg3220
I106
sg3221
I914
sg3222
I4396
sg3223
I1365
sg3224
I533
sg3225
I161
sg3226
I1350
sg3227
I3380
sg3228
I2212
sg3229
I4463
sg3230
I2627
sg3231
I2814
sg3232
I2949
sg3233
I2892
sg3234
I2354
sg3235
I1704
sg3236
I763
sg3237
I3303
sg3238
I114
sS't'
I4045
sg3239
I4070
sg3240
I1181
sg3241
I3797
sg3242
I1776
sg3243
I1835
sg3244
I3600
sg3245
I1871
sg3246
I3729
sg3247
I3699
sg3248
I3449
sg3249
I3219
sg3250
I1893
sg3251
I3791
sg3252
I1541
sg3253
I4238
sg3254
I2752
sg3255
I2346
sg3256
I3310
sg3257
I330
sg3258
I3783
sg3259
I1312
sg3260
I4014
sg3261
I2221
sS'O'
I3642
sg3262
I4135
sg3263
I669
sg3264
I254
sg3265
I4113
sg3266
I3238
sg3267
I1605
sg3268
I882
sg3269
I3655
sg3270
I3925
sg3271
I883
sg3272
I791
sg3273
I1694
sg3274
I1414
sg3275
I3565
sg3276
I3658
sg3277
I339
sg3278
I2441
sg3279
I1836
sg3280
I3962
sg3281
I209
sg3282
I3811
sg3283
I1856
sg3284
I2486
sg3285
I2869
sg3286
I440
sg3287
I4204
sg3288
I1291
sg3289
I3288
sg3290
I4336
sg3291
I1664
sg3292
I1446
sg3293
I3301
sg3294
I492
sg3295
I1761
sg3296
I1116
sg3297
I3247
sg3298
I3930
sg3299
I3381
sg3300
I3157
sg3301
I3963
sg3302
I1765
sg3303
I2991
sg3304
I4390
sg3305
I2124
sg3306
I2167
sg3307
I268
sg3308
I1809
sg3309
I237
sg3310
I1672
sg3311
I1293
sg3312
I929
sg3313
I2048
sg3314
I2965
sg3315
I1342
sg3316
I3169
sg3317
I3110
sg3318
I1180
sg3319
I3401
sg3320
I4433
sg3321
I2834
sg3322
I2397
sg3323
I695
sg3324
I3738
sg3325
I2118
sg3326
I2538
sg3327
I3957
sg3328
I3535
sg3329
I629
sg3330
I1447
sg3331
I2416
sg3332
I3849
sg3333
I852
sg3334
I2919
sg3335
I1639
sg3336
I2398
sg3337
I2343
sg3338
I3229
sg3339
I752
sg3340
I1773
sg3341
I4145
sg3342
I3637
sg1864
I1344
sg3344
I4427
sg3345
I725
sg3346
I2144
sg3347
I423
sg3348
I3720
sg3349
I600
sg3350
I3214
sg3351
I138
sg3352
I1812
sg3353
I598
sg3354
I3501
sg3355
I3891
sg3356
I821
sg3357
I697
sg3358
I1066
sg3359
I4166
sg3360
I390
sg3361
I3985
sg3362
I3492
sg3363
I1532
sg3364
I2173
sg3365
I3066
sg3366
I928
sg3367
I794
sg3368
I4177
sg3369
I4154
sg3370
I3086
sg3371
I466
sg3372
I4442
sg3373
I3664
sg3374
I3947
sg3375
I2556
sg3376
I3462
sg3377
I3749
sg3378
I4005
sg3379
I118
sg3380
I3935
sg3381
I3222
sg3382
I2851
sg3383
I2800
sg3384
I2262
sg3385
I2758
sg3386
I4052
sg3387
I2726
sg3388
I2224
sg3389
I4043
sg3390
I4163
sg3391
I3311
sg3392
I2430
sg3393
I2960
sg3394
I3867
sg3395
I4201
sS'e'
I2327
sg3396
I2586
sg3397
I3586
sg3398
I739
sg3399
I937
sg3400
I780
sg3401
I3539
sg3402
I4126
sg3403
I1243
sg3404
I381
sg3405
I875
sg3406
I1752
sg3407
I1595
sg3408
I1505
sg3409
I3790
sg3410
I3987
sg3411
I3073
sg3412
I2022
sg3413
I3202
sg3414
I3672
sg3415
I2550
sg3416
I1633
sg3417
I2309
sg3418
I1394
sg3419
I5
sg3420
I4309
sg3421
I3789
sg3422
I1191
sg3423
I4511
sg3424
I1484
sg3425
I906
sg3426
I3650
sg3427
I2540
sg3428
I4337
sg3429
I3546
sg3430
I2709
sg3431
I393
sg3432
I228
sg3433
I1590
sg3434
I4001
sg3435
I2478
sg3436
I2044
sg3437
I3479
sg3438
I4059
sg3439
I2501
sg3440
I496
sg3441
I1905
sg3442
I1221
sg3443
I2666
sg3444
I3841
sg3445
I3205
sg3446
I3777
sg3447
I640
sg3448
I4354
sg3449
I2004
sg3450
I2514
sg3451
I1984
sg3452
I269
sg3453
I3769
sg3454
I2858
sS'P'
I3817
sg3455
I2297
sg3456
I2801
sg3457
I2846
sg3458
I1788
sg3459
I3597
sg3460
I4432
sg3461
I2066
sg3462
I2404
sg3463
I2387
sg3464
I1995
sg3465
I3969
sg3466
I733
sg3467
I546
sg3468
I2975
sg3469
I4218
sg3470
I3224
sg3471
I1244
sg3472
I2596
sg3473
I4019
sg3474
I3156
sg3475
I2322
sg3476
I1896
sg3477
I3877
sg3478
I3261
sg3479
I1314
sg3480
I3331
sg3481
I3293
sg3482
I1953
sg3483
I2549
sg3484
I4054
sg3485
I3659
sg3486
I1772
sg3487
I4350
sg3488
I1764
sg3489
I554
sg3490
I2867
sg3491
I645
sg3492
I1255
sg3493
I1722
sg3494
I2513
sg3495
I290
sg3496
I596
sg3497
I4459
sg3498
I4311
sg3499
I641
sg3500
I395
sg3501
I4372
sg3502
I3440
sg3503
I2206
sg3504
I1550
sg3505
I1476
sg3506
I4378
sg3507
I1897
sg3508
I3020
sg3509
I3980
sg3510
I766
sg3511
I2120
sg3512
I2735
sg3513
I4137
sg3514
I295
sg3515
I1855
sg3516
I1506
sg3517
I465
sg3518
I2750
sg3519
I2258
sg3520
I3136
sg3521
I3701
sg3522
I3656
sg3523
I2838
sg3524
I1093
sg3525
I3813
sg3526
I3057
sg3527
I220
sg3528
I4502
sg3529
I2653
sg3530
I3055
sg3531
I1415
sg3532
I2299
sg3533
I3727
sg3534
I1820
sg3535
I2366
sg3536
I4161
sg3537
I2998
sg3538
I3712
sg3539
I2938
sg3540
I1254
sg3541
I816
sg3542
I4324
sg3543
I76
sg3544
I4435
sg3545
I1417
sg3546
I245
sg3547
I1265
sg3548
I3568
sg3549
I638
sg3550
I3031
sg3551
I1304
sg3552
I3024
sg3553
I4416
sg3554
I2563
sg3555
I2821
sg3556
I1912
sg3557
I1166
sg3558
I1391
sg3559
I835
sg3560
I278
sg3561
I3845
sg3562
I1015
sg3563
I439
sg3564
I968
sg3565
I2126
sg3566
I4106
sg3567
I2083
sg3568
I2024
sg3569
I323
sg3570
I4171
sg3571
I2898
sg3572
I2336
sg3573
I2888
sg3574
I3593
sg3575
I1081
sg3576
I3489
sg3577
I2399
sg3578
I3307
sg3579
I899
sg3580
I951
sg3581
I4167
sg3582
I3299
sg3583
I3798
sg3584
I4421
sg3585
I3870
sg3586
I3932
sg3587
I3408
sg3588
I811
sg3589
I2328
sg3590
I3472
sg3591
I2317
sg3592
I3357
sg3593
I955
sg3594
I3911
sg3595
I2280
sg3596
I3025
sg3597
I3746
sg3598
I413
sg3599
I3929
sg3600
I2428
sg3601
I324
sg3602
I392
sg3603
I3065
sg3604
I1084
sg3605
I2896
sg3606
I1229
sg3607
I1158
sg3608
I4382
sg3609
I1242
sg3610
I3782
sg3611
I4015
sg3612
I4513
sg3613
I2510
sg3614
I3819
sg3615
I2675
sg3616
I2856
sg3617
I1459
sg3618
I2548
sg3619
I3407
sg3620
I3333
sg3621
I4152
sg3622
I2802
sg3623
I1795
sg3624
I3174
sg3625
I965
sg3626
I416
sg3627
I2908
sg3628
I3631
sg3629
I2837
sg3630
I2554
sg3631
I2842
sg3632
I3213
sg3633
I3887
sg3634
I880
sg3635
I2573
sg3636
I1126
sg3637
I1496
sg3638
I30
sg3639
I3185
sg3640
I3788
sg3641
I2502
sg3642
I860
sg3643
I4282
sg3644
I490
sg3645
I1701
sg3646
I4062
sg3647
I1926
sg3648
I2734
sg3649
I43
sg3650
I3304
sg3651
I4211
sg3652
I3741
sg3653
I2353
sg3654
I1690
sg3655
I1039
sg3656
I431
sg3657
I1461
sg3658
I3183
sg3659
I4183
sg3660
I1840
sg3661
I145
sg3662
I503
sg3663
I263
sg3664
I1194
sg3665
I3802
sg3666
I1536
sg3667
I922
sg3668
I2754
sg3669
I1239
sg3670
I4485
sg3671
I1406
sg3672
I555
sg3673
I4391
sg3674
I3863
sg3675
I829
sg3676
I1245
sg3677
I2176
sg3678
I1706
sg3679
I3475
sg3680
I1
sg3681
I3542
sg3682
I2845
sg3683
I1642
sg3684
I3335
sg3685
I678
sg3686
I756
sg3687
I4199
sg3688
I3225
sg3689
I513
sg3690
I2629
sg3691
I4181
sg3692
I189
sg3693
I489
sg3694
I1271
sg3695
I1586
sg3696
I2731
sg3697
I3254
sg3698
I2694
sg3699
I4146
sg3700
I1614
sg3701
I3667
sg3702
I4116
sg3703
I704
sg3704
I2813
sg3705
I1616
sg3706
I918
sg3707
I2901
sg3708
I4403
sg3709
I2189
sg3710
I365
sg3711
I3468
sg3712
I1774
sg3713
I4270
sg3714
I3924
sg3715
I1091
sg3716
I252
sg3717
I1445
sg3718
I3589
sg3719
I2673
sg3720
I2285
sg3721
I1621
sg3722
I2507
sg3723
I1740
sg3724
I3604
sg3725
I3504
sg3726
I3349
sg3727
I2051
sg3728
I3717
sg3729
I1631
sg3730
I1626
sg3731
I2605
sg3732
I1323
sg3733
I3927
sg3734
I4507
sg3735
I2076
sg3736
I2091
sg3737
I573
sg3738
I4185
sg3739
I2590
sg3740
I999
sg3741
I4494
sg3742
I878
sg3743
I3046
sg3744
I2100
sg3745
I879
sg3746
I4258
sg3747
I2547
sg3748
I2953
sg3749
I3289
sg3750
I2986
sg3751
I3043
sg3752
I1730
sg3753
I1495
sg3754
I4430
sg3755
I3892
sg3756
I2535
sg3757
I1814
sg3758
I309
sg3759
I1588
sg3760
I3971
sg3761
I2197
sg3762
I414
sg3763
I376
sg3764
I2149
sg3765
I1688
sg3766
I3577
sg3767
I1065
sg3768
I4399
sg3769
I2619
sg3770
I2069
sg3771
I1829
sg3772
I3522
sg3773
I819
sg3774
I1487
sg3775
I3702
sg3776
I3359
sg3777
I4020
sg3778
I2453
sg3779
I673
sS"'"
I2943
sg3780
I1563
sg3781
I2470
sg3782
I2429
sg3783
I3715
sg3784
I3029
sg3785
I3826
sg3786
I2402
sg3787
I2779
sg3788
I1955
sg3789
I1574
sg3790
I2440
sg3791
I1942
sg3792
I2542
sg3793
I2948
sg3794
I1607
sg3795
I1653
sg3796
I56
sg3797
I3234
sg3798
I2512
sg3799
I4259
sg3800
I2806
sg3801
I1418
sg3802
I250
sg3803
I4212
sg3804
I1624
sg3805
I79
sg3806
I294
sg3807
I4288
sg3808
I2994
sg3809
I4178
sg3810
I83
sg3811
I4508
sg3812
I897
sg3813
I2473
sg3814
I356
sg3815
I4162
sg3816
I2186
sg3817
I2900
sg3818
I307
sg3819
I2706
sg3820
I2128
sg3821
I70
sg3822
I3554
sg3823
I3050
sg3824
I2661
sg3825
I2254
sg3826
I3220
sg3827
I2098
sg3828
I3965
sg3829
I261
sg3830
I3951
sg3831
I3206
sg3832
I1718
sg3833
I3882
sg3834
I3978
sg3835
I1903
sg3836
I3173
sg3837
I4400
sg3838
I2199
sg3839
I125
sg3840
I2588
sg3841
I3083
sg3842
I636
sg3843
I69
sg3844
I4023
sg3845
I4091
sg3846
I3503
sg3847
I122
sg3848
I2479
sg3849
I247
sg3850
I4305
sg3851
I4029
sg3852
I670
sg3853
I3444
sg3854
I2219
sg3855
I536
sg3856
I3680
sg3857
I1555
sg3858
I644
sg3859
I3533
sg3860
I4453
sg3861
I962
sg3862
I3816
sg3863
I1435
sg3864
I4032
sg3865
I500
sg3866
I4393
sg3867
I2636
sg3868
I2085
sg3869
I3670
sg3870
I1789
sg3871
I1892
sg3872
I3632
sg3873
I25
sg3874
I2131
sg3875
I3581
sg3876
I3348
sg3877
I1709
sg3878
I1966
sg3879
I2236
sg3880
I769
sg3881
I97
sg3882
I4048
sg3883
I1714
sg3884
I2205
sg3885
I3252
sg3886
I1549
sg3887
I2551
sg3888
I1691
sg3889
I1069
sg3890
I2707
sg3891
I1148
sg3892
I3762
sg3893
I3248
sg3894
I517
sg3895
I2329
sg3896
I341
sg3897
I3529
sg3898
I2143
sg3899
I300
sg3900
I146
sg3901
I807
sg3902
I3950
sg3903
I2974
sg3904
I945
sg3905
I4290
sg3906
I2139
sg3907
I662
sg3908
I3346
sg3909
I1149
sg3910
I1622
sg3911
I2021
sg3912
I1879
sg3913
I3800
sg3914
I871
sg3915
I1644
sg3916
I1060
sg3917
I2679
sg3918
I2
sg3919
I4412
sg3920
I3754
sg3921
I3728
sg3922
I1135
sg3923
I1597
sg3924
I1111
sg3925
I4072
sg3926
I3371
sg3927
I1090
sg3928
I2662
sg3929
I2300
sS'J'
I4044
sg3930
I562
sg3931
I92
sg3932
I1401
sg3933
I2659
sg3934
I1721
sg3935
I1283
sg3936
I537
sg3937
I233
sg3938
I985
sg3939
I2459
sg3940
I3280
sg3941
I2857
sg3942
I4047
sg3943
I2275
sg3944
I3831
sg3945
I1670
sg3946
I1900
sg3947
I2034
sg3948
I1859
sg3949
I2364
sg3950
I2067
sg3951
I688
sg3952
I520
sg3953
I1386
sg3954
I592
sg3955
I200
sg3956
I876
sg3957
I4056
sg3958
I2249
sg3959
I1561
sg3960
I2913
sg3961
I346
sg3962
I563
sg3963
I3143
sg3964
I3325
sg3965
I3305
sg3966
I2917
sg3967
I4317
sg3968
I4009
sg3969
I977
sg3970
I195
sg3971
I240
sg3972
I3460
sg3973
I371
sg3974
I3983
sg3975
I3881
sg3976
I894
sg3977
I3676
sg3978
I4272
sg3979
I3573
sg3980
I2039
sg3981
I2433
sg3982
I3286
sg3983
I159
sg3984
I1278
sg3985
I1273
sg3986
I2790
sg3987
I2204
sg3988
I2046
sg3989
I3321
sg3990
I1705
sg3991
I1577
sg3992
I3547
sg3993
I3599
sg3994
I4150
sg3995
I3775
sg3996
I3943
sg3997
I4471
sg3998
I2633
sg3999
I621
sg4000
I2496
sg4001
I2030
sg4002
I3878
sg4003
I3135
sg4004
I512
sg4005
I4036
sg4006
I1962
sg4007
I3787
sg4008
I2026
sg4009
I2165
sg4010
I547
sg4011
I1916
sg4012
I1362
sg4013
I312
sg4014
I3010
sg4015
I2815
sg4016
I407
sg4017
I1566
sg4018
I3810
sg4019
I164
sg4020
I863
sg4021
I2841
sg4022
I2452
sg4023
I3743
sg4024
I1685
sg4025
I2715
sg4026
I119
sg4027
I4138
sg4028
I719
sg4029
I2436
sg4030
I4110
sg4031
I2493
sg4032
I2565
sg4033
I3228
sg4034
I1431
sg4035
I3437
sg4036
I605
sg4037
I3429
sg4038
I1682
sg4039
I3094
sg4040
I166
sg4041
I1734
sg4042
I787
sg4043
I4423
sg4044
I3740
sg4045
I1724
sg4046
I2345
sg4047
I4035
sg4048
I3345
sg4049
I3830
sg4050
I4039
sg4051
I2692
sg4052
I2593
sg4053
I2820
sg4054
I858
sg4055
I2940
sg4056
I3398
sg4057
I3828
sg4058
I3033
sS'S'
I183
sg4059
I2525
sg4060
I4364
sg4061
I684
sg4062
I1339
sg4063
I3931
sg4064
I2967
sg4065
I1236
sg4066
I2971
sg4067
I3207
sg4068
I2768
sg4069
I1442
sg4070
I4228
sg4071
I1581
sg4072
I3645
sg4073
I2426
sg4074
I3004
sg4075
I2689
sg4076
I3536
sg4077
I3511
sg4078
I2728
sg4079
I631
sg4080
I2956
sg4081
I693
sg4082
I720
sg4083
I4475
sg4084
I529
sg4085
I3438
sg4086
I967
sg4087
I1001
sg4088
I58
sg4089
I3124
sg4090
I3085
sg4091
I1195
sg4092
I457
sg4093
I19
sg4094
I2521
sg4095
I342
sg4096
I362
sg4097
I4449
sg4098
I2088
sg4099
I1882
sg4100
I1630
sg4101
I3835
sg4102
I538
sg4103
I4293
sg4104
I4112
sg4105
I1888
sg4106
I3673
sg4107
I2608
sg4108
I4165
sg4109
I1652
sg4110
I3896
sg4111
I3897
sg4112
I2623
sg4113
I789
sg4114
I162
sg4115
I4323
sg4116
I1026
sg4117
I430
sg4118
I3426
sg4119
I3118
sg4120
I1918
sg4121
I2361
sg4122
I820
sg4123
I2422
sg4124
I2509
sg4125
I873
sg4126
I3737
sg4127
I1517
sg4128
I2103
sg4129
I1296
sg4130
I1655
sg4131
I4028
sg4132
I3714
sg4133
I2566
sg4134
I4313
sg4135
I1421
sg4136
I939
sg4137
I1800
sg4138
I3686
sg4139
I1928
sg4140
I3412
sg4141
I3976
sg4142
I2380
sg4143
I728
sg4144
I3938
sg4145
I903
sg4146
I803
sg4147
I4213
sg4148
I2287
sg4149
I1183
sg4150
I2313
sg4151
I2719
sg4152
I132
sg4153
I2993
sg4154
I2242
sg4155
I2914
sg4156
I2012
sg4157
I180
sg4158
I1077
sg4159
I4268
sg4160
I3441
sg4161
I1500
sg4162
I3871
sg4163
I2444
sg4164
I3832
sg4165
I1457
sg4166
I2581
sg4167
I1531
sg4168
I3078
sg4169
I1544
sg4170
I94
sg4171
I1482
sg4172
I1952
sg4173
I4303
sg4174
I241
sg4175
I4294
sg4176
I3284
sg4177
I4351
sg4178
I4215
sg4179
I4031
sg4180
I1889
sg4181
I1568
sg4182
I3548
sg4183
I2733
sg4184
I886
sg4185
I3160
sg4186
I280
sg4187
I2655
sg4188
I2946
sg4189
I2632
sg4190
I2018
sg4191
I90
sg4192
I3508
sg4193
I622
sg4194
I3463
sg4195
I1381
sg4196
I1252
sg4197
I4063
sg4198
I907
sg4199
I2932
sg4200
I2175
sg4201
I3909
sg4202
I2772
sg4203
I694
sg4204
I2009
sg4205
I4247
sg4206
I974
sg4207
I175
sg4208
I3131
sg4209
I4114
sg4210
I1917
sg4211
I556
sg4212
I2712
sg4213
I905
sg4214
I2795
sg4215
I2628
sg4216
I1455
sg4217
I2418
sg4218
I3506
sg4219
I3732
sg4220
I1138
sg4221
I941
sg4222
I1940
sg4223
I961
sg4224
I2331
sg4225
I1994
sg4226
I1456
sg4227
I3023
sg4228
I3899
sg4229
I3698
sg4230
I1467
sg4231
I3920
sg4232
I952
sg4233
I964
sg4234
I1762
sg4235
I3709
sg4236
I1799
sg4237
I313
sg4238
I4415
sg4239
I1854
sg4240
I2809
sg4241
I3035
sg4242
I2791
sg4243
I434
sg4244
I2500
sg4245
I2849
sg4246
I3886
sg4247
I3495
sg4248
I1290
sg4249
I367
sS'T'
I89
sg4250
I3053
sg4251
I1848
sg4252
I3807
sg4253
I4057
sg4254
I3751
sg4255
I4456
sg4256
I1114
sg4257
I842
sg4258
I4252
sg4259
I4352
sg4260
I3809
sg4261
I566
sg4262
I1061
sg4263
I2211
sg4264
I1985
sg4265
I4380
sg4266
I455
sg4267
I3946
sg4268
I2607
sg4269
I1295
sg4270
I2990
sg4271
I3888
sg4272
I3761
sg4273
I3491
sg4274
I848
sg4275
I2603
sg4276
I3217
sg4277
I2864
sg4278
I287
sg4279
I1486
sg4280
I3077
sg4281
I535
sg4282
I2041
sg4283
I2020
sg4284
I1009
sg4285
I192
sg4286
I609
sg4287
I3428
sg4288
I3168
sg4289
I2760
sg4290
I1573
sg4291
I1200
sg4292
I1876
sg4293
I222
sg4294
I3162
sg4295
I2112
sg4296
I3013
sg4297
I926
sg4298
I628
sg4299
I1886
sg4300
I2923
sg4301
I2185
sg4302
I3404
sg4303
I2156
sg4304
I288
sg4305
I4096
sg4306
I2074
sg4307
I930
sg4308
I2025
sg4309
I834
sg4310
I2773
sg4311
I1237
sg4312
I570
sg4313
I1564
sg4314
I4262
sg4315
I2377
sg4316
I2388
sg4317
I2664
sg4318
I3953
sg4319
I2798
sg4320
I3459
sg4321
I4073
sg4322
I1403
sg4323
I4223
sg4324
I4147
sg4325
I4514
sg4326
I4487
sg4327
I4026
sg4328
I2389
sg4329
I2615
sg4330
I2730
sg4331
I3620
sg4332
I4006
sg4333
I2458
sg4334
I1546
sg4335
I326
sg4336
I2068
sg4337
I3244
sg4338
I626
sg4339
I3956
sg4340
I1192
sg4341
I4169
sg4342
I960
sg4343
I71
sg4344
I1108
sg4345
I1151
sg4346
I543
sg4347
I3109
sg4348
I692
sg4349
I3386
sg4350
I1545
sg4351
I2243
sg4352
I4338
sg4353
I3801
sg4354
I1656
sg4355
I1703
sg4356
I2668
sg4357
I3382
sg4358
I2230
sg4359
I1232
sg4360
I27
sg4361
I672
sg4362
I853
sg4363
I91
sg4364
I32
sg4365
I61
sg4366
I1303
sg4367
I1935
sg4368
I3799
sg4369
I1963
sg4370
I2003
sg4371
I582
sg4372
I1146
sg4373
I924
sg4374
I2746
sg4375
I741
sg4376
I368
sg4377
I408
sg4378
I3885
sg4379
I3054
sg4380
I1443
sg4381
I4125
sg4382
I1998
sg4383
I3326
sg4384
I2246
sg4385
I1121
sg4386
I499
sg4387
I3731
sg4388
I2152
sg4389
I2425
sg4390
I4447
sg4391
I2610
sg4392
I1976
sg4393
I790
sg4394
I443
sg4395
I3447
sg4396
I2159
sg4397
I1139
sg4398
I1204
sg4399
I3570
sg4400
I3518
sg4401
I2749
sg4402
I1095
sg4403
I1201
sg4404
I2036
sg4405
I1286
sg4406
I949
sg4407
I2997
sg4408
I947
sg4409
I1635
sg4410
I2934
sg4411
I3879
sg4412
I4326
sg4413
I2536
sg4414
I3378
sg4415
I1750
sg4416
I709
sg4417
I4092
sg4418
I4065
sg4419
I4140
sg4420
I1933
sg4421
I3585
sg4422
I2520
sg4423
I3610
sg4424
I3602
sg4425
I1578
sg4426
I4426
sg4427
I1429
sg4428
I2699
sg4429
I3995
sg4430
I753
sg4431
I1029
sg4432
I637
sg4433
I4016
sg4434
I2935
sg4435
I155
sg4436
I2784
sg4437
I666
sg4438
I212
sg4439
I2218
sg4440
I571
sg4441
I1770
sg4442
I1407
sg4443
I2741
sg4444
I1294
sg4445
I1434
sg4446
I1707
sg4447
I910
sg4448
I1680
sg4449
I2745
sg4450
I2816
sg4451
I2256
sg4452
I1159
sg4453
I265
sg4454
I1212
sg4455
I2936
sg4456
I1818
sg4457
I2202
sg4458
I1756
sg4459
I1619
sg4460
I4090
sg4461
I78
sS'U'
I182
sg4462
I4266
sg4463
I1316
sg4464
I3671
sg4465
I4499
sg4466
I524
sg4467
I2889
sg4468
I3854
sg4469
I3476
sg4470
I1687
sg4471
I2600
sg4472
I4111
sg4473
I144
sg4474
I4457
sg4475
I4202
sg4476
I4098
sg4477
I4470
sg4478
I1611
sg4479
I3757
sg4480
I238
sg4481
I3502
sg4482
I4074
sg4483
I2078
sg4484
I3047
sg4485
I4292
sg4486
I3940
sg4487
I1480
ssS'_reverse_mapping'
p4490
(lp4491
g12
ag3680
ag3918
ag646
ag853
ag3419
ag2157
ag844
ag898
ag1647
ag1573
ag2774
ag214
ag1268
ag995
ag2242
ag531
ag1564
ag2415
ag4093
ag197
ag953
aS'A'
ag216
ag1878
ag3873
ag2829
ag4360
ag631
ag1479
ag3638
ag2133
ag4364
ag742
ag1443
ag1632
ag3075
ag2100
ag236
ag2115
ag857
ag2104
ag1869
ag3649
ag207
ag2639
ag1480
ag1616
ag2110
ag655
ag2270
ag1177
ag518
ag2977
ag1184
ag1687
ag3796
ag2586
ag4088
ag532
ag2410
ag4365
ag1749
ag215
ag980
ag1172
ag2455
ag208
ag609
ag3843
ag3821
ag4343
ag2507
ag1011
ag869
ag519
ag3543
ag2302
ag4461
ag3805
ag3079
ag2526
ag1193
ag3810
ag54
ag1582
ag967
ag211
aS'E'
aS'T'
ag4191
ag4363
ag3931
ag213
ag4170
ag2204
ag779
ag3881
ag3130
ag277
ag83
ag1594
ag210
ag38
ag76
ag1932
ag3220
ag3171
ag634
ag480
ag2218
ag1475
ag2548
ag1824
ag3238
ag2260
ag2414
ag1452
ag3379
ag4026
ag3062
ag2533
ag3847
ag682
ag2851
ag3839
ag178
ag398
ag2817
ag1955
aS'-'
ag2070
ag4152
ag842
ag2073
ag217
ag122
ag1175
ag3351
ag2341
aS'a'
ag654
ag536
ag2609
ag4473
ag3661
ag3900
ag2537
aS'2'
ag946
ag1276
ag528
ag2200
ag3095
ag772
ag4435
ag1731
ag717
ag39
ag3983
ag1223
ag3225
ag4114
ag1138
ag4019
ag1024
ag4040
ag2081
aS'I'
ag2486
ag908
ag1397
ag1004
ag2498
ag1470
ag4207
ag1813
ag306
ag535
ag405
ag4157
ag2561
aS'U'
aS'S'
ag711
ag1500
ag2050
ag2769
ag2085
ag3692
ag383
ag2611
ag4285
ag3161
ag3081
ag3970
ag1745
ag2951
ag1273
ag904
ag3955
ag1586
ag1009
ag1474
ag1119
ag1134
ag1238
ag1329
ag319
ag3281
ag2511
ag1543
ag4438
ag2346
ag2227
ag674
ag873
ag212
ag1316
ag1252
ag3527
ag1494
ag4293
ag1456
ag312
ag2939
ag1698
ag2631
ag3432
ag56
ag1400
ag1971
ag2884
ag3937
ag2780
ag2996
ag657
ag3309
ag4480
ag761
ag3971
ag4174
ag2952
ag2125
ag472
ag3546
ag2306
ag3849
ag2915
ag559
ag3802
ag3169
ag3716
ag1471
ag3264
ag1380
ag1629
ag963
ag2460
ag2238
ag2702
ag3829
ag1367
ag3663
ag2776
ag4453
ag688
ag3159
ag3307
ag3452
ag2738
ag1339
ag617
ag387
ag3001
ag534
ag1148
ag2810
ag3560
ag370
ag4186
ag3175
ag2976
ag801
ag1961
ag2456
ag698
ag4278
ag4304
ag2022
ag3495
ag1528
ag1759
ag1169
ag3806
ag3514
ag652
ag2187
ag3043
aS'V'
ag3899
ag2578
ag3113
ag3178
ag603
ag95
ag929
ag3818
ag2398
ag3758
ag719
ag2062
ag4013
ag4237
ag352
ag1527
ag1956
ag1291
ag2846
ag1230
ag1634
ag838
ag846
ag3569
ag3601
ag848
ag4335
ag3155
ag2554
ag3097
ag3257
ag1047
ag503
ag2760
ag850
ag840
ag2684
ag1921
ag1061
ag3277
ag1127
ag3896
ag4095
ag2235
ag2812
ag47
ag3961
ag1249
ag1358
ag1723
ag1952
ag1185
ag1207
ag466
ag111
ag687
ag3814
ag910
ag62
ag1717
ag2252
ag2121
ag4096
ag958
ag1854
ag3710
ag2446
ag4249
ag4376
ag1432
ag1174
ag3973
ag1966
aS'4'
ag1264
ag548
ag3763
ag3139
ag2344
ag1334
aS'3'
ag3404
ag1976
ag1166
ag2059
ag2937
ag473
ag2452
ag2798
ag1001
ag3360
ag2411
ag3602
ag3431
ag452
ag3500
ag3183
ag1725
ag2428
ag2194
ag841
ag2573
ag1850
ag341
ag112
ag2577
ag874
ag4016
ag4377
ag1623
ag311
ag2016
ag1617
ag3598
ag3762
ag3151
ag3626
ag1089
ag2975
ag2831
ag1188
ag1557
ag675
ag3347
ag483
ag1164
ag1902
ag1442
ag61
ag1587
ag4117
ag3656
ag2416
ag2300
ag4243
ag728
ag163
ag3146
ag616
ag3563
ag3286
ag1318
ag3209
ag4394
ag29
ag2814
ag530
ag2123
ag1156
ag2360
ag1237
ag3069
ag2177
ag369
ag845
ag4266
ag847
ag4092
ag2658
ag811
ag395
ag2826
ag3210
ag1305
ag96
ag3517
ag3371
ag101
ag1773
ag2096
ag2974
ag2802
ag2595
ag1410
ag533
ag1908
ag1392
ag922
ag2462
ag404
ag2472
ag459
ag574
ag1784
ag1820
ag1279
ag187
ag1151
ag421
ag3693
ag3644
ag1584
ag3294
ag919
ag1098
ag828
ag3440
ag2219
ag2035
ag4386
ag3865
ag1607
ag575
ag3662
ag1053
ag2183
ag2054
ag91
ag364
ag431
ag1336
ag2834
ag4004
ag3689
ag1472
ag142
ag172
ag3894
ag269
ag1844
ag3952
ag2033
ag3026
ag2782
ag4466
ag125
ag3172
ag2168
ag2397
ag4084
ag447
ag738
aS'L'
ag3224
ag3060
ag4281
ag3855
ag3936
ag4102
ag2695
ag2982
ag450
ag2520
ag4346
ag1672
ag1828
ag3467
ag4010
ag1855
ag2155
ag1245
ag1484
ag491
ag979
ag3489
ag3672
ag4211
ag438
ag1947
ag504
ag3184
ag2131
ag3930
ag3962
ag1973
ag1421
ag4261
ag221
ag2848
ag1997
ag4312
ag4440
ag289
ag3737
ag2988
ag232
ag1258
ag3142
ag1450
ag2451
ag1678
ag2379
ag4371
ag2605
ag167
ag1368
ag3201
ag2034
ag2546
ag626
ag933
ag1300
ag3954
ag508
ag279
ag1433
ag3496
ag2981
ag3353
ag3213
ag3349
ag2146
ag24
ag1754
ag55
ag4036
ag2201
ag1105
ag1666
ag4286
ag2048
ag87
ag2553
ag1328
ag3133
ag529
ag283
ag3192
ag802
ag1357
ag706
ag3999
ag4193
ag989
ag2229
ag70
ag4338
ag154
ag4298
ag3329
ag2294
ag4079
ag2265
ag1036
ag1805
ag1051
ag3842
ag4432
ag3549
ag2542
ag3447
ag3499
ag653
ag1413
ag3858
ag3491
ag1000
ag357
ag1694
ag2823
aS'y'
ag764
ag3091
ag823
ag1846
aS'8'
aS'k'
ag670
ag2655
ag2750
ag2026
ag581
ag3907
ag1881
ag2693
ag2485
ag4437
ag1313
ag647
ag3263
ag3852
ag2770
ag4361
ag3779
ag2045
ag3065
ag1856
ag1871
ag3685
ag2627
ag3035
ag1733
ag2696
ag895
ag4061
ag98
ag1469
ag248
ag3951
ag970
ag2764
ag1729
ag4348
ag4081
ag4203
ag3323
ag1416
ag3357
ag1272
ag677
ag900
ag1679
ag266
ag806
ag3703
ag864
ag2233
ag2637
ag2949
ag4416
ag691
ag775
ag1986
ag1254
ag2418
ag1505
ag2010
ag776
ag2527
ag4028
ag4082
ag3011
aS's'
ag632
ag100
ag3345
ag1467
ag2678
ag4143
ag2281
ag2794
ag1982
ag2989
ag3466
ag2721
ag1256
ag1247
ag1914
ag905
ag3398
ag2245
ag4375
ag2156
ag498
ag1133
ag1218
ag1005
ag1959
ag1874
ag332
ag1396
ag1544
ag3339
ag4430
ag1522
ag3100
ag3686
ag660
ag2646
ag2375
ag918
ag943
ag2148
ag3236
ag2028
ag109
ag3510
ag2335
ag769
ag3880
ag773
ag573
ag567
ag2762
ag1838
ag1970
ag925
ag907
ag2328
ag1283
ag3400
ag1671
ag1553
ag423
ag1533
ag2420
ag1863
ag4042
ag2582
ag4113
ag4393
ag3272
ag2467
ag1227
ag3367
ag2719
ag1822
ag1407
ag262
ag171
ag1763
ag2598
ag2164
ag4146
ag1732
ag2458
ag2106
ag3901
ag1461
ag2391
ag1143
ag3588
ag3055
ag307
ag2821
ag2269
ag3541
ag1610
ag3096
ag3773
ag4122
ag3356
ag428
ag1153
ag2968
ag246
ag825
ag1418
ag2930
ag3675
ag940
ag501
ag2061
ag564
ag4309
ag3559
ag1466
ag2258
ag1259
ag1059
ag1621
ag3212
ag4257
ag589
ag2437
ag1140
ag32
ag2942
ag4274
ag2789
ag3176
ag1903
ag3333
ag4362
ag931
ag1197
ag913
ag1627
ag4054
ag2259
ag3642
ag2944
ag1518
ag4020
ag1919
ag2205
ag238
ag826
ag2550
ag2041
ag1655
ag3914
ag1324
ag4125
ag1424
ag3405
ag3956
ag1117
ag3742
ag3745
ag3634
ag1086
ag3268
ag3271
ag2858
ag1293
ag4184
ag1953
ag3125
ag605
ag1736
ag1980
ag2773
ag2246
ag3976
ag969
ag610
ag3812
ag1866
ag3579
ag2856
ag1879
ag2682
ag4145
ag2728
ag4213
ag3425
ag4198
ag2477
ag2732
ag4447
ag2523
ag400
ag2849
ag3221
ag1158
ag2184
ag3119
ag3706
ag2226
ag37
ag1163
ag3667
ag1535
ag4373
ag930
ag4297
ag2516
ag3366
ag3312
ag4307
ag2337
ag1083
ag2144
ag2014
ag2954
ag939
ag3399
aS'X'
ag4136
ag735
ag4221
ag445
ag991
ag1067
ag3904
ag515
ag4408
ag587
ag4406
ag2757
ag3580
ag4232
ag2138
ag380
ag3593
ag427
ag330
ag2718
ag2714
ag4342
ag4223
ag3861
ag209
ag4233
ag3625
ag2180
ag4086
ag3564
ag1748
ag2001
ag2247
ag770
ag1216
ag4206
ag231
ag374
ag3969
ag1766
ag3030
ag2528
ag2990
ag144
ag2737
ag1562
ag3938
ag2665
ag233
ag426
ag815
ag620
ag1841
ag2373
ag3181
ag1600
ag2139
ag1150
ag1520
ag566
ag3740
ag793
ag4087
ag1263
ag1933
ag2512
ag2445
ag2286
ag1344
ag500
ag4284
ag2170
ag2396
ag2670
ag693
ag2377
ag3562
ag648
ag345
ag1271
ag413
ag1234
ag2392
ag956
ag237
ag1147
ag2850
ag4116
ag1027
ag120
ag4431
ag601
ag1235
ag1797
ag570
ag2393
ag1155
ag1778
ag843
ag2172
ag3655
ag2208
ag1183
ag162
ag1297
ag2084
ag124
ag335
ag3108
ag708
ag2031
ag1354
ag2174
ag1965
ag3058
ag760
ag1437
ag267
ag1833
ag1351
ag1588
ag3916
ag4262
ag2820
ag343
ag3177
ag3767
ag3358
aS'1'
ag948
ag3889
ag1957
ag2216
ag1979
ag153
ag1248
ag2971
ag2680
ag4158
ag1830
ag1075
ag1042
ag3575
ag2690
ag2129
ag3604
ag2597
ag2890
ag2481
ag1253
ag2167
ag3927
ag3715
ag2784
ag3524
ag537
ag4402
ag1718
ag1063
ag2483
ag2592
ag1347
ag715
ag812
ag1848
ag3048
ag2610
ag1178
ag2991
ag4344
ag2236
ag2894
ag3924
ag2754
ag460
ag4256
ag1525
ag3296
ag506
ag1886
ag2660
ag3085
ag4385
ag107
ag1865
ag2656
ag2163
ag3636
ag2964
ag48
ag3164
ag2099
ag684
ag2647
ag1944
ag68
ag3922
ag1209
ag1967
ag4220
ag4397
ag1477
ag1683
ag650
ag2223
ag1513
ag814
ag4372
ag914
ag3891
ag3909
ag1476
ag4345
ag1363
ag3009
ag822
ag890
ag401
ag978
ag3607
ag4452
ag1026
ag849
ag2723
ag924
ag113
ag1938
ag3557
ag458
ag2244
ag2785
ag1688
ag1576
ag1277
aS'M'
aS'H'
ag264
ag2037
ag2478
ag1847
ag2429
ag3318
ag3240
ag2895
ag4149
ag1831
ag2253
ag2886
ag349
ag509
ag3068
ag476
ag3422
ag4340
ag744
ag3664
ag4091
ag2457
ag1750
ag129
ag1656
ag4291
ag4403
ag2383
ag1795
ag4398
ag1720
ag2023
ag1540
ag3105
ag141
ag502
ag788
ag4454
ag2747
ag664
ag2970
ag1545
ag865
ag328
ag1840
ag2237
ag3442
ag3087
ag2756
ag1337
ag304
ag1037
ag2006
ag1462
ag3606
ag1767
ag2879
ag4359
ag800
ag2338
ag2438
ag4065
ag4311
ag2030
ag3669
ag1650
ag2354
ag3609
ag3403
ag3471
ag3676
ag860
ag3116
ag2517
ag902
ag152
ag781
ag4196
ag1668
ag3540
ag3492
ag797
ag106
ag1567
ag759
ag1662
ag2574
ag2093
ag2345
ag1904
ag3547
ag2103
ag189
ag1294
ag3143
ag1176
ag3694
ag2711
ag3985
ag1969
ag1631
ag2701
ag2249
ag3984
ag64
ag765
ag2567
ag1228
ag3935
ag1790
ag1215
ag4405
ag227
ag809
ag1777
ag4248
ag3288
ag1406
ag3311
ag4444
ag4269
ag4129
ag1170
ag2613
ag22
ag1633
ag1295
ag928
ag4366
ag3551
ag2967
ag424
ag2903
ag523
ag1892
ag3194
ag2571
ag3259
ag1751
ag3479
ag2904
ag4463
ag2284
ag507
ag2581
ag1558
ag2052
ag465
ag3732
ag2224
ag3073
ag830
ag549
ag692
ag2060
ag1727
ag2303
ag1916
ag2470
ag2266
ag3124
ag2241
ag1146
ag2222
ag4062
ag3014
ag2960
ag3315
ag422
ag1864
ag2466
ag1485
ag551
ag1486
ag602
ag3226
ag881
aS'G'
ag1233
ag2873
ag3015
ag2166
ag240
ag1281
ag1473
ag439
ag2186
ag4012
ag2746
ag3004
ag3223
ag3343
ag41
ag1657
ag2966
ag1684
ag2040
ag2197
ag362
ag1388
ag3127
ag2088
ag2325
ag1696
ag2931
ag2620
ag4195
ag314
ag2877
ag2790
ag2763
ag3953
ag723
ag415
ag410
ag1420
ag3558
ag326
ag2969
ag3418
ag2513
ag982
ag3109
ag303
ag1808
ag544
ag3932
ag2256
ag4322
ag3180
ag2044
ag3671
ag4442
ag2938
ag3115
ag824
ag2531
ag903
ag2295
ag3274
ag3531
ag785
ag3545
ag3801
ag3198
ag1204
ag4135
ag2861
ag784
ag859
ag2191
ag495
ag3120
ag3027
ag4427
ag703
ag4034
ag2329
ag3061
ag4445
ag3863
ag2289
ag2674
ag492
ag2563
ag962
ag1888
ag4069
ag4380
ag1744
ag3717
ag3292
ag3330
ag685
ag612
ag3074
ag1862
ag524
ag2479
ag1429
ag4216
ag4226
ag4165
ag984
ag3617
ag156
ag3657
ag1816
ag1675
ag2779
ag1398
ag2007
ag4230
ag1664
ag1111
ag414
ag1710
ag2630
ag661
ag310
ag1585
ag3505
ag1393
ag1269
ag1730
ag4487
ag755
ag4171
ag1901
ag3424
ag3199
ag4279
ag3774
ag2709
ag1308
ag1637
ag336
ag746
ag990
ag1359
ag3753
ag3637
ag1589
ag2068
ag2543
ag4161
ag629
ag2419
ag372
ag1883
ag3408
ag3516
ag185
ag1877
ag286
ag1180
ag889
ag490
ag322
ag640
ag748
ag1179
ag4127
ag696
ag3042
ag2261
ag1743
ag479
ag565
ag1780
ag771
ag540
ag2793
ag1149
ag988
ag2130
ag4167
ag3363
ag2626
ag247
ag2538
ag3666
ag1206
ag1852
ag3215
ag2015
ag3252
ag77
ag219
ag4169
ag4350
ag4334
ag2716
ag3147
ag3886
ag3504
ag2663
ag2689
ag1100
ag2759
ag3857
ag294
ag1889
ag942
ag1579
ag3174
ag3959
ag2864
ag3780
ag4313
ag281
ag4017
ag2370
ag4181
ag2614
ag3024
ag2837
ag170
ag4290
ag3789
ag3188
ag2165
ag3991
ag4425
ag817
ag1769
ag4071
ag2778
ag2080
ag2544
ag2450
ag3695
ag198
ag3759
ag2883
ag3433
ag2387
ag1121
ag2724
ag2524
ag3407
ag1385
ag3923
ag451
ag1060
ag2808
ag2540
ag571
ag299
ag1401
ag3267
ag3017
ag3794
ag871
ag3064
ag1765
ag4478
ag301
ag3185
ag3700
ag471
ag3705
ag2922
ag1427
ag4459
ag545
ag3721
ag3910
ag103
ag3804
ag1611
ag3730
ag1517
ag1129
ag1580
ag4100
ag3729
ag2304
ag3416
ag1214
ag4409
ag1050
ag1926
ag2288
ag3335
ag3166
ag720
ag3683
ag2729
ag3915
ag2423
ag2179
ag3103
ag1069
ag2066
ag3016
ag316
ag4109
ag3795
ag2273
ag4130
ag4354
ag119
ag181
ag2389
ag1796
ag86
ag419
ag671
ag3291
ag2251
ag2314
ag882
ag2493
ag562
ag3945
ag3080
ag3310
ag1201
ag1383
ag3008
ag909
ag1899
ag2679
ag1788
ag4448
ag1106
ag4038
ag2919
ag2358
ag4024
ag2072
ag4470
ag3765
ag2362
ag3654
ag3888
ag34
ag3190
ag3273
ag157
ag1691
ag2228
ag2900
ag1905
ag2309
ag3645
ag2926
ag4355
ag3235
ag3990
ag3678
ag4446
ag45
ag3877
ag786
ag1943
ag139
ag994
ag3883
ag705
ag1136
ag2558
ag3832
ag2519
ag2287
ag3934
ag3493
ag791
ag4045
ag1404
ag1716
ag2293
ag2350
ag3029
ag3752
ag1189
ag2401
ag1012
ag4041
ag320
ag2805
ag2961
ag3162
ag1990
ag3723
ag987
ag2112
ag1939
ag2257
ag31
ag2819
ag2921
ag1779
ag1022
ag4415
ag94
ag3406
ag1090
ag3106
ag2105
ag4458
ag583
ag486
ag2058
ag520
ag3295
ag4234
ag1618
ag3488
ag3302
ag1974
ag82
ag951
ag2336
ag4441
ag2688
ag3486
ag3340
ag3712
ag2740
ag3242
ag1074
ag200
ag639
ag1108
ag1630
ag2518
ag3173
ag2641
ag1715
ag1708
ag1591
ag3458
ag3870
ag2047
ag1940
ag1510
ag964
ag885
ag3623
ag2097
ag1320
ag72
ag4236
ag4137
ag2098
ag1570
ag2102
ag1173
ag1612
ag569
ag1082
ag21
ag3308
ag1595
ag30
ag3352
ag2424
ag3757
ag418
ag1593
ag915
ag4456
ag1301
ag3534
ag1167
ag1798
ag1285
ag1330
ag2891
ag2135
ag2816
ag305
ag3771
ag611
ag3118
ag2703
ag71
ag1659
ag3243
ag3279
ag2580
ag2603
ag1707
ag3660
ag3217
ag2145
ag923
ag3189
ag230
ag243
ag1728
ag4251
ag1872
ag2427
ag2440
ag710
ag174
ag4239
ag3515
ag3283
ag813
ag3187
ag3948
ag457
ag359
ag510
ag327
ag337
ag937
ag1322
ag1574
ag411
ag2071
ag1898
ag3245
ag1043
ag263
ag2860
ag430
ag4292
ag302
ag795
ag3912
ag1058
ag2633
ag4099
ag201
ag3098
ag3010
ag4299
ag1563
ag4105
ag4180
ag1280
ag1758
ag3871
ag3250
ag2310
ag2803
ag3476
ag3507
ag3012
ag606
ag3946
ag2787
ag1377
ag3835
ag965
ag3441
ag2355
ag1103
ag1987
ag2722
ag2162
ag1087
ag3556
ag3107
ag1041
ag1566
ag4011
ag4210
ag4120
ag1073
ag855
ag774
ag346
ag1524
ag1719
ag1571
ag3647
ag2706
ag4139
ag680
ag3022
ag455
ag260
ag4420
ag2185
ag4367
ag143
ag820
ag2659
ag1019
ag4222
ag108
ag3791
ag2552
ag1088
ag1497
ag1387
ag1144
ag1674
ag651
ag1590
ag1936
ag4172
ag3482
ag2683
ag3788
ag2590
ag2322
ag435
ag808
ag3045
aS'F'
ag4006
ag4369
ag1186
ag618
ag3878
ag2064
ag118
ag621
ag1661
ag1039
ag2473
ag137
ag1274
ag1550
ag4392
ag2282
ag1893
ag191
ag2629
ag1468
ag1319
ag3134
ag3451
ag4264
ag1208
ag3141
ag2132
ag638
ag959
ag2959
ag446
ag2504
ag4225
ag3464
ag1606
ag239
ag4382
ag2539
ag1972
ag1858
ag563
ag4370
ag3449
ag81
ag2051
ag2675
ag347
ag4204
ag244
ag1529
ag4156
ag385
ag2565
ag2720
ag2340
ag1942
ag4190
ag1451
ag4283
ag3911
ag3412
ag1530
ag3568
ag4308
ag4008
ag1803
ag1441
ag1307
ag4001
ag2830
ag469
aS'Q'
ag3947
ag1875
ag4404
ag393
ag2840
ag3980
ag1142
ag4282
ag1162
ag2262
ag3436
ag3205
ag3988
ag1880
ag3313
ag474
ag1501
ag3727
ag2017
ag1949
ag1663
ag1157
ag2908
ag2898
ag1168
ag1619
ag3165
ag355
ag766
ag2963
ag2889
ag3135
ag3461
ag3950
ag4336
ag3770
ag2888
ag921
ag3078
ag862
ag4306
ag223
ag3735
ag1459
ag4483
ag743
ag1355
ag27
ag2825
ag3567
ag366
ag3868
ag1673
ag896
ag4098
ag731
ag2753
ag3736
ag2739
ag2290
ag2192
ag550
ag804
ag2887
ag3827
ag997
ag3744
ag1097
ag2607
ag4128
ag1092
ag2076
ag1538
ag1338
ag2925
ag1211
ag1321
ag300
ag4295
ag3186
ag2234
ag1445
ag1523
ag2021
ag3325
ag2570
ag3511
ag258
ag1985
ag554
ag3305
ag1465
ag3565
ag777
ag3820
ag2593
ag1435
ag3874
ag578
ag2910
ag2385
ag2406
ag1246
ag2936
ag1556
ag3906
ag484
ag1122
ag1015
ag3898
ag3346
ag2347
ag2101
ag2323
ag1243
ag3764
ag866
ag1411
ag4388
ag1255
ag2005
ag2487
ag4303
ag2906
ag2932
ag4396
ag3102
ag1402
ag2206
ag1346
ag3077
ag4009
ag1007
ag3306
ag2872
ag1681
ag1900
ag92
ag2367
ag3364
ag2815
ag4200
ag3677
ag2267
ag1861
ag2083
ag2700
ag2839
ag340
ag3196
ag1910
ag4301
ag3816
ag271
ag1444
ag3709
ag1165
ag2141
ag361
ag1190
ag672
ag1653
ag358
ag3761
ag225
ag3838
ag453
ag3193
ag4457
ag1577
ag3987
ag3884
ag3503
ag1035
ag403
ag695
ag160
ag4263
ag3228
ag2622
ag1815
ag607
ag2152
ag2669
ag4439
ag3854
ag2905
ag3261
ag2715
ag2353
ag3388
ag667
ag1935
ag758
ag2997
ag699
ag4358
ag665
ag2796
ag2634
ag3144
ag1010
ag3879
ag2649
ag280
ag539
ag2541
ag2464
ag4154
ag4351
ag2998
ag2474
ag4384
ag1792
ag2555
ag3958
ag2907
ag879
ag975
ag2708
ag3825
ag252
ag4451
ag1706
ag3519
ag1811
ag2534
ag2012
ag3384
ag182
ag1660
ag1093
ag1229
ag3216
ag2545
ag2363
ag1275
ag1548
ag949
ag2124
ag2349
ag3943
ag462
ag1783
ag2792
ag2547
ag3595
ag1017
ag140
ag1639
ag2525
ag3720
ag2822
ag4148
ag525
ag2500
ag1724
ag40
ag2804
ag1021
ag992
ag1648
ag2275
ag3455
ag1099
ag3532
ag3929
ag686
ag818
ag2378
ag188
ag643
ag676
ag762
ag250
ag3417
ag725
ag2312
aS'5'
ag4150
aS'6'
ag2122
ag1532
ag3591
ag2882
ag2468
ag1044
ag2356
ag3475
ag1599
ag338
aS'r'
aS'v'
aS'e'
ag3589
ag3895
ag2986
ag4224
ag53
ag317
ag2313
ag1512
ag3572
ag493
ag274
ag590
ag1205
ag2009
ag635
ag3337
ag546
ag4046
ag3255
ag1868
ag2321
ag2436
ag2572
ag2880
ag2433
ag3653
ag3234
ag2677
ag1226
ag1350
ag3070
ag641
ag2480
ag4121
ag85
ag2862
ag3949
ag116
ag3535
ag351
ag1526
ag2400
ag2958
ag2339
ag292
ag2742
ag1458
ag2413
ag3007
ag4315
ag1502
ag724
ag4142
ag637
ag1800
ag1217
ag2979
ag1839
ag604
ag3463
ag4316
ag4328
ag3114
ag2521
ag2727
ag584
ag273
ag636
ag1695
ag3322
ag3336
ag3577
ag2549
ag2319
ag3786
ag1635
ag3462
ag1014
ag883
ag1999
ag1298
ag1419
ag1704
ag2089
ag440
ag1693
ag136
ag1551
ag3331
ag1076
ag4217
ag384
ag1642
ag1020
ag4123
ag1232
ag718
ag4389
ag4073
ag2743
ag3600
ag3782
ag3392
ag497
ag375
ag3981
ag2650
ag1753
ag4029
ag1064
ag1752
ag2063
ag3790
ag3278
ag796
ag2600
ag4163
ag78
ag278
aS'9'
ag2075
ag2892
ag1622
ag1160
ag4022
ag3778
ag1317
ag2151
ag1302
ag2687
ag4333
ag3939
ag408
ag84
ag1836
ag542
ag805
ag2232
ag2212
ag1278
ag1498
ag1920
ag3781
ag1964
ag377
ag3813
ag417
ag449
ag886
ag309
ag3435
ag3848
ag2002
ag2364
ag1080
ag511
ag1495
ag444
ag3284
ag1569
ag1918
ag2857
ag1768
ag1362
ag1842
ag4031
ag513
ag736
ag4000
ag3168
ag2432
ag399
ag4244
ag3439
ag3641
ag1925
ag1913
ag2666
ag161
ag3722
ag561
ag4124
ag3613
ag2575
ag3798
ag3494
ag3450
ag1415
ag712
ag1826
ag2211
ag2107
ag4422
ag4094
ag2957
ag1023
ag1911
ag4059
ag126
ag1395
ag597
ag2704
ag2881
ag2859
ag1774
ag974
ag2490
ag3756
ag4413
ag1049
ag3326
ag1412
ag3427
ag887
ag3792
ag2972
ag2444
ag1726
ag1065
ag3747
ag3618
ag3483
ag3415
ag3887
ag224
ag2203
ag3630
ag1379
ag3375
ag1057
ag429
ag2587
ag1390
ag854
ag2797
ag3554
ag1962
ag4032
ag4133
ag1066
ag521
ag229
ag1343
ag2836
ag1651
ag3635
ag66
ag1958
ag875
ag614
ag105
ag2198
ag1236
ag4166
ag1615
ag832
ag968
ag2502
ag3396
ag1491
ag3840
ag2057
ag3739
ag2799
ag2654
ag4052
ag1231
ag2514
ag3472
ag2896
ag2422
ag2557
ag4471
ag1870
ag2920
ag4275
ag872
ag3731
ag1686
ag4268
ag4107
ag2136
ag4391
ag1311
ag2506
ag2160
ag1493
ag4329
ag2386
ag46
ag2128
ag3769
ag2503
ag1250
ag245
ag4112
ag1581
ag704
ag1596
ag3230
ag4215
ag3690
ag1762
ag954
ag4189
ag3998
ag2039
ag1072
ag3867
ag1931
ag2469
ag1200
ag3145
ag151
ag2559
ag2733
ag3206
ag2024
ag2535
ag1536
ag1755
ag2435
ag3000
ag2642
ag196
ag3529
ag1341
ag4187
ag868
ag3163
ag1006
ag3933
ag2771
ag3824
ag3928
ag3034
ag4317
ag799
ag3443
ag737
ag4356
ag1742
ag2207
ag177
ag1603
ag3719
ag2625
ag3615
ag2277
ag986
ag960
ag3917
ag3110
ag2264
ag1257
ag2758
ag1709
ag2095
ag241
ag1078
ag1994
ag4075
ag2530
ag1641
ag4051
ag973
ag3698
ag1531
ag891
ag659
ag2119
ag4428
ag168
ag2999
ag1198
ag26
ag2828
ag110
ag3819
ag3890
ag941
ag3430
ag42
ag1649
ag4212
ag767
ag3111
ag4025
ag420
ag2912
ag1640
ag4151
ag2870
ag389
ag1601
ag2488
ag2529
ag1604
ag3387
ag1460
ag4078
ag2657
ag4330
ag3696
ag867
ag4183
ag3648
ag3512
ag3150
ag3153
ag2917
ag2885
ag1071
ag4443
ag147
ag2569
ag3132
ag4449
ag4374
ag2623
ag2374
ag4401
ag3518
ag1676
ag3254
ag1537
ag3668
ag2065
ag1930
ag1267
ag3385
ag2749
ag4289
ag2263
ag3211
ag2772
ag3148
ag3083
ag3137
ag3013
ag4068
ag1210
ag1212
ag1756
ag4202
ag4310
ag3156
ag2399
ag1644
ag3063
ag1782
ag3787
ag622
ag1008
ag1242
ag721
ag4436
ag102
ag3046
ag2950
ag325
ag1091
ag3986
ag4242
ag1286
ag1430
ag3067
ag4214
ag2178
ag2243
ag4319
ag3123
ag3383
ag3456
ag3622
ag376
ag3031
ag1187
ag3800
ag253
ag130
ag4240
ag1547
ag272
ag2074
ag3704
ag3231
ag4015
ag4450
ag1771
ag3128
ag2137
ag4053
ag3555
ag763
ag1991
ag2376
ag2116
ag1126
ag877
ag291
ag787
ag576
ag1403
ag482
ag2638
ag3321
ag1348
ag2020
ag3629
ag3523
ag3088
ag897
ag4021
ag3631
ag3057
ag2735
ag3682
ag3457
ag1895
ag1221
ag4245
ag443
ag3382
ag547
ag333
ag1194
ag3099
ag3616
ag3941
ag3454
ag999
ag512
ag222
ag2604
ag134
ag4277
ag437
ag837
ag3490
ag1646
ag3285
ag884
ag135
ag1364
ag624
ag803
ag1776
ag1988
ag251
ag2143
ag88
ag1799
ag798
ag642
ag2730
ag1353
ag1740
ag165
ag1159
ag3573
ag4467
ag789
ag1912
ag3233
ag683
ag2852
ag888
ag3605
ag2008
ag3571
ag127
ag3817
ag3707
ag1821
ag1389
ag1225
ag1735
ag700
ag2285
ag3627
ag1094
ag149
ag190
ag985
ag3960
ag4155
ag228
ag2092
ag3966
ag697
ag3334
ag90
ag2395
ag2147
ag4300
ag2560
ag2984
ag2317
ag373
ag2869
ag1220
ag2673
ag3117
ag4199
ag662
ag4410
ag4434
ag4455
ag2230
ag3539
ag1055
ag4055
ag1289
ag2463
aS"'"
ag2661
ag3219
ag4188
ag1954
ag3793
ag3232
ag456
ag1794
ag183
ag3748
ag1417
ag821
ag4080
ag1700
ag3121
ag1968
ag3393
ag579
ag2018
ag57
ag2599
ag3314
ag308
ag4064
ag2726
ag1284
ag1741
ag4066
ag2094
ag1034
ag3903
ag3468
ag2330
ag899
ag2676
ag284
ag1120
ag18
ag35
ag1371
ag1665
ag3019
ag3750
ag971
ag2154
ag1514
ag4270
ag3303
ag555
ag4153
ag3808
ag966
ag396
ag4407
ag3537
ag2536
ag397
ag1056
ag1492
ag2280
ag4074
ag1876
ag996
ag2934
ag132
ag1303
ag4014
ag709
ag938
ag4296
ag588
ag594
ag681
ag1260
ag3112
ag1713
ag3508
ag2699
ag1787
ag4227
ag3552
ag3596
ag2158
ag89
ag2351
ag3784
ag628
ag3550
ag242
ag4058
ag1333
ag4241
ag192
ag2220
ag749
ag2043
ag1747
ag1332
ag67
ag3751
ag1645
ag1697
ag3743
ag4484
ag1764
ag348
ag3823
ag1885
ag1439
ag4250
ag4379
ag3530
ag1946
ag3526
ag2091
ag1482
ag732
ag295
ag1191
ag2995
ag944
ag3603
ag3365
ag2868
ag1115
ag517
ag1029
ag1109
ag3101
ag3411
ag193
ag3049
ag1481
ag4280
ag4168
ag3052
ag173
ag3170
ag2210
ag3841
ag2077
ag4090
ag3370
ag3104
ag2927
ag1414
ag2681
ag2781
ag1331
ag2027
ag4039
ag1310
ag2255
ag2644
ag689
ag290
ag313
ag2439
ag679
ag1806
ag2579
ag2628
ag2231
ag2608
ag1608
ag4347
ag3317
ag783
ag585
ag839
ag730
ag2827
ag2712
ag538
ag4119
ag342
ag2601
ag2876
ag522
ag1690
ag4089
ag365
ag2366
ag1488
ag831
ag199
ag2935
ag4208
ag807
ag467
ag2624
ag4003
ag3520
ag1003
ag475
ag2188
ag1887
ag1124
ag65
ag3963
ag2636
ag1541
ag1154
ag2140
ag1132
ag1038
ag2992
ag270
ag2923
ag2447
ag381
ag60
ag3474
ag3300
ag2551
ag658
ag4185
ag2298
ag4294
ag2056
ag1378
ag1422
ag935
ag321
ag4288
ag3316
ag2941
ag1941
ag1807
ag3836
ag3624
ag1643
ag3086
ag2268
ag1739
ag2114
ag1449
ag2962
ag2171
ag3658
ag288
ag3639
ag3051
ag1652
ag1372
aS'D'
ag645
ag794
ag3157
ag3218
ag1761
ag955
ag3028
ag2357
ag287
ag3154
ag2384
ag3059
ag3413
ag1832
ag2899
ag3445
ag3831
ag4067
ag1789
ag1002
ag690
ag1552
ag2768
ag3632
ag3350
ag489
ag3038
ag4276
ag2326
ag3249
ag3826
ag2461
ag3381
ag1152
ag3470
ag3688
ag1202
ag1624
ag4033
ag3338
ag315
ag1614
ag2495
ag51
ag3797
ag2591
ag2489
ag1583
ag3266
ag203
ag131
ag2202
ag2924
ag1515
ag4337
ag339
ag1288
ag3297
ag3893
ag2308
ag1859
ag2853
ag3885
ag1853
ag3697
ag261
ag1845
ag893
ag2632
ag1809
ag2818
ag3478
ag1682
ag268
ag2671
ag1123
ag1282
ag2809
ag2320
ag1299
ag726
ag1296
ag2806
ag1062
ag2046
ag1196
ag195
ag961
ag598
ag1112
ag3940
ag1689
ag2189
ag2382
ag4176
ag2111
ag3982
ag1738
ag3289
ag3749
ag464
ag1760
ag2175
ag3481
ag514
ag613
ag2332
ag1721
ag1737
ag3582
ag1906
ag3293
ag2404
ag3237
ag3650
ag3965
ag666
ag3578
ag1463
ag591
ag3256
ag3391
ag1399
ag470
ag2271
ag2299
ag2978
aS'B'
ag722
ag1963
ag235
ag3989
ag1312
ag169
ag2484
ag3964
ag4383
ag810
ag454
ag2173
ag2875
ag3480
ag1018
ag3620
ag1386
ag3684
ag1703
ag858
ag433
ag2492
ag2602
ag3204
ag1107
ag2214
ag2176
ag4048
ag3908
ag2499
ag3876
ag3726
ag2583
ag2948
ag663
ag1382
ag2505
ag1384
ag1323
ag3592
ag2274
ag3776
ag2767
ag249
ag3158
ag2181
ag3208
ag2442
ag2087
ag1349
ag701
ag2576
ag2004
ag3926
ag1262
ag556
ag371
ag1446
ag2795
ag2645
ag4414
ag2127
ag3227
ag3299
ag4357
ag1453
ag1654
ag2465
ag4349
ag392
ag2596
ag1804
ag1361
ag2272
ag1376
ag557
ag1609
ag2777
ag505
ag331
ag4056
ag2707
ag1685
ag3319
ag1408
ag254
ag4302
ag434
ag1851
ag3619
ag3587
ag2279
ag1857
ag2717
ag4140
ag1360
ag1454
ag1304
ag2276
ag99
ag3084
ag1572
ag2434
ag3032
ag2993
ag2118
ag526
ag44
ag4118
ag1934
ag4287
ag4037
ag1265
ag2786
ag2985
ag2449
ag836
ag2751
ag1224
ag4035
ag4085
ag2697
ag3502
ag4160
ag1032
ag1070
ag3853
ag1915
ag745
ag4395
ag1712
ag3248
ag2664
ag2897
ag2108
ag1436
ag1141
ag2843
ag2441
ag739
ag2648
ag4320
ag3972
ag3131
ag3376
ag4194
ag580
ag1995
ag133
ag2765
ag3711
ag1843
ag2126
ag1977
ag3590
ag2190
ag3149
ag3679
ag4469
ag2448
ag1290
ag3437
ag293
ag983
ag947
ag1077
ag619
ag1636
ag1079
ag1981
ag478
ag3576
ag2713
ag4273
ag3362
ag3066
ag734
ag4247
ag1509
ag1195
ag2278
ag1554
ag1340
ag3354
ag4481
ag3846
ag3725
ag1203
ag4218
ag750
ag4192
ag3006
ag3082
ag4077
ag74
ag3122
ag2240
ag2668
ag463
ag407
ag4400
ag2250
ag1561
ag2745
ag3772
ag1025
ag2359
ag1978
ag2134
ag2497
ag2594
ag3897
ag552
ag3160
ag2791
ag3859
ag2315
ag3328
ag4076
ag2841
ag1306
ag3401
ag957
ag1667
ag3681
ag2169
ag2515
ag2443
ag3429
ag3992
ag4182
ag1772
ag2824
aS'n'
ag150
ag2324
ag3822
ag2042
ag754
ag2161
ag1182
ag2482
aS'C'
ag1519
ag1950
ag2946
ag1425
ag3275
ag1699
ag780
ag3548
ag354
ag4399
ag1391
ag73
ag3979
ag2748
ag1251
ag1801
ag3766
ag2933
ag1927
ag2109
ag3875
ag912
ag2459
ag2311
ag4421
ag3397
ag3140
ag876
ag3718
ag527
ag1734
ag926
ag3574
ag1814
ag25
ag1405
ag3459
ag1448
ag3993
ag3244
ag2217
ag4424
ag1506
ag3724
ag2615
ag69
ag816
ag218
ag1327
ag4423
ag2865
ag2566
ag2069
ag1680
ag344
aS'N'
ag2193
ag2943
ag2055
ag4331
ag1837
ag2348
ag50
ag1945
ag1829
ag179
ag1040
ag329
ag1266
ag1705
ag3628
ag3872
ag3092
ag2913
ag1894
ag976
ag3342
ag436
ag1884
ag2651
ag2408
aS'O'
ag176
ag2510
ag4072
ag1702
ag600
ag2372
aS'K'
ag3426
ag1565
ag63
ag36
ag1781
ag3269
ag3522
ag927
ag3276
ag3485
ag1560
ag1810
ag2835
ag2621
ag3373
ag714
ag835
ag3701
ag1365
ag582
ag3869
ag4464
ag3414
ag4106
ag448
ag2013
ag3977
ag468
ag1369
ag1135
ag3856
ag3207
ag3167
ag1426
ag1669
ag378
ag4138
ag3179
ag2248
ag1960
ag1511
ag3050
ag1929
ag1213
ag1802
ag572
ag3054
ag1823
ag4229
ag3247
ag1507
ag3521
ag3775
ag324
ag138
ag487
ag2011
ag2965
ag285
ag4235
ag3214
ag1757
ag3538
ag2120
ag4132
ag3783
ag1521
ag3728
ag3002
ag2813
ag3348
ag1516
ag75
ag93
ag1356
ag2929
ag255
ag3533
ag3921
ag3246
ag2807
ag4387
ag4219
ag2388
ag1478
ag1375
ag3195
ag4126
ag3324
ag49
ag4044
ag3652
ag2947
ag4023
ag2736
ag1620
ag3597
ag2117
ag2430
ag3377
ag644
ag4254
ag1423
ag936
ag3920
ag713
ag2556
ag4479
ag2878
ag2685
ag2916
ag4272
ag3892
ag1897
ag2584
aS'7'
ag80
aS'o'
ag184
ag3453
ag1503
ag3037
ag1241
ag3202
ag856
ag3995
ag1711
ag3446
ag1464
ag1791
ag894
ag1827
ag3610
ag3258
ag499
ag2453
ag386
ag4007
ag3640
ag3421
ag3409
ag3251
ag2731
ag3094
ag1670
ag2694
ag1335
ag3241
ag3583
ag4368
ag3913
ag4353
ag3665
ag819
ag297
ag2994
ag202
ag4252
ag1882
ag4260
ag4018
ag3282
ag934
ag3525
ag1812
ag1549
ag3862
aS'P'
ag2618
ag3614
ag148
ag911
ag1096
aS'j'
ag851
ag2343
ag3785
ag23
ag4057
ag220
ag4049
ag3944
ag4164
ag778
ag2078
ag4101
ag1578
ag920
ag3152
ag298
ag2616
ag3444
ag1849
ag2698
ag2195
ag3561
ag175
ag792
ag2407
ag3332
ag379
ag630
ag1592
ag2983
ag4468
ag1199
ag1352
ag2845
ag3041
ag1873
ag20
ag3056
ag2426
ag3674
ag1084
ag2380
ag633
ag3394
ag1052
ag1292
ag3585
ag4162
ag416
aS'd'
ag577
ag1605
ag2854
ag3477
ag4002
ag4411
ag2955
ag3975
ag3833
ag2705
ag2254
ag4378
ag4246
ag3633
ag4271
ag1046
ag1431
ag3355
ag3755
ag115
ag596
ag945
ag4110
ag4111
ag334
ag4228
ag3093
ag834
ag2000
ag2866
ag3053
ag1239
ag2318
ag2640
ag901
ag4201
ag206
ag3594
ag952
ag998
ag1722
ag1085
ag2475
ag2196
ag2352
ag296
ag4231
ag2394
ag1104
ag425
ag3714
ag3270
ag2522
ag3733
ag363
ag3599
ag3298
ag4063
ag3586
ag3021
ag1016
ag3380
ag391
ag727
ag4144
ag2744
ag4486
ag1891
ag852
ag3996
ag1890
ag2911
ag4267
ag3374
ag1613
ag2811
ag3902
ag3830
ag2331
ag4318
ag117
ag121
ag4339
ag3327
ag350
ag2956
ag1244
ag2901
ag3280
ag3301
ag2867
ag3828
ag1539
ag2863
ag981
ag3465
ag2297
ag3760
ag932
ag2038
ag586
ag256
ag4141
ag649
ag3834
ag673
ag3509
ag1996
ag204
ag3974
ag1867
ag3361
ag2940
ag3410
ag2847
ag1658
ag390
ag159
ag2619
ag2086
ag488
ag4429
ag668
ag1130
ag917
ag2113
ag1240
ag3434
ag1131
ag1701
ag3191
ag3378
ag4332
ag1793
ag1434
ag3968
ag656
ag977
ag595
ag2213
ag3260
ag3611
ag4433
ag558
ag123
ag3473
ag3777
ag2307
ag3090
ag3844
ag1457
ag3182
ag4327
ag2833
ag4131
ag3851
ag829
ag4179
ag3864
aS'W'
ag2316
ag4047
ag4005
ag3076
ag702
ag4050
ag2405
ag1102
ag1315
ag3389
aS'J'
aS't'
ag2755
ag3942
ag3882
ag33
ag1602
ag1490
ag3386
ag1998
ag3484
ag356
ag3957
ag4253
ag2150
ag3438
ag1447
ag1068
ag3646
ag4197
ag1575
ag4418
ag3025
ag2692
ag79
ag1381
ag3239
ag441
ag3925
ag4321
ag4482
ag3047
ag114
ag1013
ag353
ag1409
ag1101
ag2800
ag2029
ag318
ag3033
ag2090
ag1909
ag1922
ag1542
ag2741
ag4460
ag3845
ag4417
ag2842
ag2305
ag2402
ag4305
ag146
ag4476
ag2019
ag1366
ag870
ag3126
ag669
ag2153
ag265
ag3566
ag2431
ag2412
ag1628
ag4030
ag4472
ag4104
ag3265
ag4209
ag2643
ag3702
ag2032
ag2509
ag1559
ag2788
ag1394
ag2902
ag593
ag1785
ag4381
ag3402
ag1045
ag3040
ag747
ag406
ag1261
ag1033
ag323
ag3003
ag3262
ag790
ag3513
ag4027
ag1786
ag4419
ag186
ag1489
ag1951
ag2003
ag3341
ag3699
ag4324
ag741
ag3089
ag3994
ag1928
ag3621
ag2588
ag3369
ag2159
ag2987
ag226
ag2365
ag494
ag2471
ag3536
ag3815
ag3390
ag2893
ag4108
ag3359
ag3581
ag827
ag4341
ag1438
ag3570
ag1054
ag275
ag360
ag863
ag1326
ag3368
ag3809
ag1342
ag205
ag3691
ag1145
ag3659
ag2667
ag3738
ag1625
ag234
ag1896
ag2421
ag2199
ag1638
ag1937
ag2783
ag1309
ag756
ag2291
ag2221
ag2686
ag3687
ag2775
ag3395
ag4475
ag19
ag3287
ag1825
ag2612
ag2403
ag1095
ag2496
ag1555
ag3651
ag3803
ag4147
ag3023
ag4178
ag2761
ag1219
ag3469
ag560
ag368
ag3072
ag481
ag4323
ag1483
ag43
ag402
ag2606
ag4070
ag892
ag2082
ag1048
ag2239
ag2049
ag553
ag2417
ag2672
ag1834
ag3253
ag1775
ag259
ag2283
ag194
ag2371
ag2508
ag58
ag3044
ag4205
ag3005
ag2752
ag59
ag1818
ag4258
ag1746
ag625
aS'w'
ag409
ag2296
ag3746
ag3799
ag1222
ag442
ag4314
ag477
ag2918
ag388
ag4462
ag1171
ag4159
ag3200
ag3713
ag543
ag3978
ag2838
ag1487
ag678
ag2589
ag2390
ag2691
ag2225
ag1314
ag2874
ag3643
ag2334
ag1113
ag1137
ag878
ag751
ag3807
ag694
ag3905
ag1626
ag4485
ag4103
ag4175
ag1546
ag52
ag2142
ag1440
ag1128
ag2067
ag1345
ag2725
ag4173
ag716
ag3850
ag1270
ag1110
ag916
ag3420
ag2914
ag3498
ag1139
ag4134
ag615
ag1192
ag1370
ag3967
ag2564
ag1924
ag28
ag599
ag2053
ag4115
ag3542
ag164
ag4412
ag3036
ag1028
ag2909
ag516
ag627
ag282
ag2476
ag1114
ag1125
ag3290
ag3428
ag4352
ag97
ag1116
ag861
ag1993
ag768
ag1598
ag2494
ag2801
ag2368
ag1948
ag2209
ag3487
ag4177
ag4259
ag2585
ag3448
ag2079
ag166
ag1975
ag1373
ag2409
ag1287
ag2025
ag972
ag2381
ag4060
ag1817
ag1081
ag733
ag1374
ag2292
ag276
ag1030
ag3501
ag367
ag3018
ag257
ag2832
ag729
ag3506
ag2734
ag4265
ag3138
ag3608
ag412
ag623
ag592
ag2501
ag906
ag2617
ag145
ag3304
ag3673
ag3039
ag3866
ag104
ag496
ag3222
ag2562
ag1496
ag3768
ag3837
ag158
ag2710
ag3708
ag2652
ag394
ag2980
ag1499
ag2662
ag1325
ag568
ag2342
ag3919
ag2635
ag2871
ag4238
ag3553
ag1692
ag2491
ag1860
ag1031
ag3584
ag1983
ag4043
ag2036
ag2973
ag4426
ag3344
ag2149
ag1770
ag3754
ag1568
ag3460
ag3320
ag752
ag3544
ag3129
ag2532
ag740
ag2766
ag485
ag1534
ag3372
ag2953
ag2361
ag2369
ag1923
ag4390
ag3020
ag4097
ag2454
ag1161
ag1118
ag3860
ag608
ag3203
ag4255
ag4474
ag1597
ag3497
ag1907
ag2327
ag2568
ag3229
ag707
ag3136
ag2844
ag757
ag1428
ag128
ag4477
ag3997
ag1989
ag880
ag2182
ag4083
ag1677
ag993
ag382
ag1819
ag432
ag1508
ag2855
ag2215
ag2945
ag3670
ag2425
ag4326
ag2301
ag1984
ag1714
ag461
ag2333
ag782
ag3741
ag2928
ag753
ag1455
ag155
ag4465
ag180
ag3071
ag3528
ag833
ag541
ag1992
ag1835
ag3734
ag3811
ag1504
ag1181
ag3423
ag3197
ag3612
ag4325
ag950
ag1917
ag2653
asbsS'max_document_length'
p4492
I15
sS'_tokenizer'
p4493
ctensorflow.contrib.learn.python.learn.preprocessing.text
tokenizer
p4494
sS'min_frequency'
p4495
I0
sb.